Archive member included because of file (symbol)

c:/microsemi/softconsole_v4.0/arm-none-eabi-gcc/bin/../lib/gcc/arm-none-eabi/4.9.3/armv7-m\libgcc.a(_arm_addsubdf3.o)
                              ./main.o (__aeabi_dadd)
c:/microsemi/softconsole_v4.0/arm-none-eabi-gcc/bin/../lib/gcc/arm-none-eabi/4.9.3/armv7-m\libgcc.a(_arm_muldivdf3.o)
                              ./main.o (__aeabi_dmul)
c:/microsemi/softconsole_v4.0/arm-none-eabi-gcc/bin/../lib/gcc/arm-none-eabi/4.9.3/armv7-m\libgcc.a(_arm_fixdfsi.o)
                              ./main.o (__aeabi_d2iz)
c:/microsemi/softconsole_v4.0/arm-none-eabi-gcc/bin/../lib/gcc/arm-none-eabi/4.9.3/armv7-m\libgcc.a(_arm_truncdfsf2.o)
                              ./main.o (__aeabi_d2f)
c:/microsemi/softconsole_v4.0/arm-none-eabi-gcc/bin/../lib/gcc/arm-none-eabi/4.9.3/../../../../arm-none-eabi/lib/armv7-m\libg.a(lib_a-errno.o)
                              ./CMSIS/startup_gcc/newlib_stubs.o (__errno)
c:/microsemi/softconsole_v4.0/arm-none-eabi-gcc/bin/../lib/gcc/arm-none-eabi/4.9.3/../../../../arm-none-eabi/lib/armv7-m\libg.a(lib_a-exit.o)
                              c:/microsemi/softconsole_v4.0/arm-none-eabi-gcc/bin/../lib/gcc/arm-none-eabi/4.9.3/../../../../arm-none-eabi/lib/armv7-m/crt0.o (exit)
c:/microsemi/softconsole_v4.0/arm-none-eabi-gcc/bin/../lib/gcc/arm-none-eabi/4.9.3/../../../../arm-none-eabi/lib/armv7-m\libg.a(lib_a-impure.o)
                              c:/microsemi/softconsole_v4.0/arm-none-eabi-gcc/bin/../lib/gcc/arm-none-eabi/4.9.3/../../../../arm-none-eabi/lib/armv7-m\libg.a(lib_a-exit.o) (_global_impure_ptr)
c:/microsemi/softconsole_v4.0/arm-none-eabi-gcc/bin/../lib/gcc/arm-none-eabi/4.9.3/../../../../arm-none-eabi/lib/armv7-m\libg.a(lib_a-init.o)
                              c:/microsemi/softconsole_v4.0/arm-none-eabi-gcc/bin/../lib/gcc/arm-none-eabi/4.9.3/../../../../arm-none-eabi/lib/armv7-m/crt0.o (__libc_init_array)
c:/microsemi/softconsole_v4.0/arm-none-eabi-gcc/bin/../lib/gcc/arm-none-eabi/4.9.3/../../../../arm-none-eabi/lib/armv7-m\libg.a(lib_a-memcpy.o)
                              ./drivers/mss_sys_services/mss_sys_services.o (memcpy)
c:/microsemi/softconsole_v4.0/arm-none-eabi-gcc/bin/../lib/gcc/arm-none-eabi/4.9.3/../../../../arm-none-eabi/lib/armv7-m\libg.a(lib_a-memset.o)
                              c:/microsemi/softconsole_v4.0/arm-none-eabi-gcc/bin/../lib/gcc/arm-none-eabi/4.9.3/../../../../arm-none-eabi/lib/armv7-m/crt0.o (memset)
c:/microsemi/softconsole_v4.0/arm-none-eabi-gcc/bin/../lib/gcc/arm-none-eabi/4.9.3/../../../../arm-none-eabi/lib/armv7-m\libg.a(lib_a-sprintf.o)
                              ./main.o (sprintf)
c:/microsemi/softconsole_v4.0/arm-none-eabi-gcc/bin/../lib/gcc/arm-none-eabi/4.9.3/../../../../arm-none-eabi/lib/armv7-m\libg.a(lib_a-strlen.o)
                              ./main.o (strlen)
c:/microsemi/softconsole_v4.0/arm-none-eabi-gcc/bin/../lib/gcc/arm-none-eabi/4.9.3/../../../../arm-none-eabi/lib/armv7-m\libg.a(lib_a-svfprintf.o)
                              c:/microsemi/softconsole_v4.0/arm-none-eabi-gcc/bin/../lib/gcc/arm-none-eabi/4.9.3/../../../../arm-none-eabi/lib/armv7-m\libg.a(lib_a-sprintf.o) (_svfprintf_r)
c:/microsemi/softconsole_v4.0/arm-none-eabi-gcc/bin/../lib/gcc/arm-none-eabi/4.9.3/../../../../arm-none-eabi/lib/armv7-m\libg.a(lib_a-__call_atexit.o)
                              c:/microsemi/softconsole_v4.0/arm-none-eabi-gcc/bin/../lib/gcc/arm-none-eabi/4.9.3/../../../../arm-none-eabi/lib/armv7-m\libg.a(lib_a-exit.o) (__call_exitprocs)
c:/microsemi/softconsole_v4.0/arm-none-eabi-gcc/bin/../lib/gcc/arm-none-eabi/4.9.3/../../../../arm-none-eabi/lib/armv7-m\libg.a(lib_a-atexit.o)
                              c:/microsemi/softconsole_v4.0/arm-none-eabi-gcc/bin/../lib/gcc/arm-none-eabi/4.9.3/../../../../arm-none-eabi/lib/armv7-m\libg.a(lib_a-__call_atexit.o) (atexit)
c:/microsemi/softconsole_v4.0/arm-none-eabi-gcc/bin/../lib/gcc/arm-none-eabi/4.9.3/../../../../arm-none-eabi/lib/armv7-m\libg.a(lib_a-dtoa.o)
                              c:/microsemi/softconsole_v4.0/arm-none-eabi-gcc/bin/../lib/gcc/arm-none-eabi/4.9.3/../../../../arm-none-eabi/lib/armv7-m\libg.a(lib_a-svfprintf.o) (_dtoa_r)
c:/microsemi/softconsole_v4.0/arm-none-eabi-gcc/bin/../lib/gcc/arm-none-eabi/4.9.3/../../../../arm-none-eabi/lib/armv7-m\libg.a(lib_a-fini.o)
                              c:/microsemi/softconsole_v4.0/arm-none-eabi-gcc/bin/../lib/gcc/arm-none-eabi/4.9.3/../../../../arm-none-eabi/lib/armv7-m\libg.a(lib_a-__call_atexit.o) (__libc_fini_array)
c:/microsemi/softconsole_v4.0/arm-none-eabi-gcc/bin/../lib/gcc/arm-none-eabi/4.9.3/../../../../arm-none-eabi/lib/armv7-m\libg.a(lib_a-locale.o)
                              c:/microsemi/softconsole_v4.0/arm-none-eabi-gcc/bin/../lib/gcc/arm-none-eabi/4.9.3/../../../../arm-none-eabi/lib/armv7-m\libg.a(lib_a-svfprintf.o) (_localeconv_r)
c:/microsemi/softconsole_v4.0/arm-none-eabi-gcc/bin/../lib/gcc/arm-none-eabi/4.9.3/../../../../arm-none-eabi/lib/armv7-m\libg.a(lib_a-mallocr.o)
                              c:/microsemi/softconsole_v4.0/arm-none-eabi-gcc/bin/../lib/gcc/arm-none-eabi/4.9.3/../../../../arm-none-eabi/lib/armv7-m\libg.a(lib_a-svfprintf.o) (_malloc_r)
c:/microsemi/softconsole_v4.0/arm-none-eabi-gcc/bin/../lib/gcc/arm-none-eabi/4.9.3/../../../../arm-none-eabi/lib/armv7-m\libg.a(lib_a-memchr.o)
                              c:/microsemi/softconsole_v4.0/arm-none-eabi-gcc/bin/../lib/gcc/arm-none-eabi/4.9.3/../../../../arm-none-eabi/lib/armv7-m\libg.a(lib_a-svfprintf.o) (memchr)
c:/microsemi/softconsole_v4.0/arm-none-eabi-gcc/bin/../lib/gcc/arm-none-eabi/4.9.3/../../../../arm-none-eabi/lib/armv7-m\libg.a(lib_a-mlock.o)
                              c:/microsemi/softconsole_v4.0/arm-none-eabi-gcc/bin/../lib/gcc/arm-none-eabi/4.9.3/../../../../arm-none-eabi/lib/armv7-m\libg.a(lib_a-mallocr.o) (__malloc_lock)
c:/microsemi/softconsole_v4.0/arm-none-eabi-gcc/bin/../lib/gcc/arm-none-eabi/4.9.3/../../../../arm-none-eabi/lib/armv7-m\libg.a(lib_a-mprec.o)
                              c:/microsemi/softconsole_v4.0/arm-none-eabi-gcc/bin/../lib/gcc/arm-none-eabi/4.9.3/../../../../arm-none-eabi/lib/armv7-m\libg.a(lib_a-dtoa.o) (_Balloc)
c:/microsemi/softconsole_v4.0/arm-none-eabi-gcc/bin/../lib/gcc/arm-none-eabi/4.9.3/../../../../arm-none-eabi/lib/armv7-m\libg.a(lib_a-s_fpclassify.o)
                              c:/microsemi/softconsole_v4.0/arm-none-eabi-gcc/bin/../lib/gcc/arm-none-eabi/4.9.3/../../../../arm-none-eabi/lib/armv7-m\libg.a(lib_a-svfprintf.o) (__fpclassifyd)
c:/microsemi/softconsole_v4.0/arm-none-eabi-gcc/bin/../lib/gcc/arm-none-eabi/4.9.3/../../../../arm-none-eabi/lib/armv7-m\libg.a(lib_a-sbrkr.o)
                              c:/microsemi/softconsole_v4.0/arm-none-eabi-gcc/bin/../lib/gcc/arm-none-eabi/4.9.3/../../../../arm-none-eabi/lib/armv7-m\libg.a(lib_a-mallocr.o) (_sbrk_r)
c:/microsemi/softconsole_v4.0/arm-none-eabi-gcc/bin/../lib/gcc/arm-none-eabi/4.9.3/../../../../arm-none-eabi/lib/armv7-m\libg.a(lib_a-strcmp.o)
                              c:/microsemi/softconsole_v4.0/arm-none-eabi-gcc/bin/../lib/gcc/arm-none-eabi/4.9.3/../../../../arm-none-eabi/lib/armv7-m\libg.a(lib_a-locale.o) (strcmp)
c:/microsemi/softconsole_v4.0/arm-none-eabi-gcc/bin/../lib/gcc/arm-none-eabi/4.9.3/../../../../arm-none-eabi/lib/armv7-m\libg.a(lib_a-svfiprintf.o)
                              c:/microsemi/softconsole_v4.0/arm-none-eabi-gcc/bin/../lib/gcc/arm-none-eabi/4.9.3/../../../../arm-none-eabi/lib/armv7-m\libg.a(lib_a-svfprintf.o) (__ssprint_r)
c:/microsemi/softconsole_v4.0/arm-none-eabi-gcc/bin/../lib/gcc/arm-none-eabi/4.9.3/../../../../arm-none-eabi/lib/armv7-m\libg.a(lib_a-__atexit.o)
                              c:/microsemi/softconsole_v4.0/arm-none-eabi-gcc/bin/../lib/gcc/arm-none-eabi/4.9.3/../../../../arm-none-eabi/lib/armv7-m\libg.a(lib_a-atexit.o) (__register_exitproc)
c:/microsemi/softconsole_v4.0/arm-none-eabi-gcc/bin/../lib/gcc/arm-none-eabi/4.9.3/../../../../arm-none-eabi/lib/armv7-m\libg.a(lib_a-callocr.o)
                              c:/microsemi/softconsole_v4.0/arm-none-eabi-gcc/bin/../lib/gcc/arm-none-eabi/4.9.3/../../../../arm-none-eabi/lib/armv7-m\libg.a(lib_a-mprec.o) (_calloc_r)
c:/microsemi/softconsole_v4.0/arm-none-eabi-gcc/bin/../lib/gcc/arm-none-eabi/4.9.3/../../../../arm-none-eabi/lib/armv7-m\libg.a(lib_a-freer.o)
                              c:/microsemi/softconsole_v4.0/arm-none-eabi-gcc/bin/../lib/gcc/arm-none-eabi/4.9.3/../../../../arm-none-eabi/lib/armv7-m\libg.a(lib_a-mallocr.o) (_free_r)
c:/microsemi/softconsole_v4.0/arm-none-eabi-gcc/bin/../lib/gcc/arm-none-eabi/4.9.3/../../../../arm-none-eabi/lib/armv7-m\libg.a(lib_a-memmove.o)
                              c:/microsemi/softconsole_v4.0/arm-none-eabi-gcc/bin/../lib/gcc/arm-none-eabi/4.9.3/../../../../arm-none-eabi/lib/armv7-m\libg.a(lib_a-svfiprintf.o) (memmove)
c:/microsemi/softconsole_v4.0/arm-none-eabi-gcc/bin/../lib/gcc/arm-none-eabi/4.9.3/../../../../arm-none-eabi/lib/armv7-m\libg.a(lib_a-reallocr.o)
                              c:/microsemi/softconsole_v4.0/arm-none-eabi-gcc/bin/../lib/gcc/arm-none-eabi/4.9.3/../../../../arm-none-eabi/lib/armv7-m\libg.a(lib_a-svfiprintf.o) (_realloc_r)
c:/microsemi/softconsole_v4.0/arm-none-eabi-gcc/bin/../lib/gcc/arm-none-eabi/4.9.3/../../../../arm-none-eabi/lib/armv7-m\libg.a(lib_a-reent.o)
                              c:/microsemi/softconsole_v4.0/arm-none-eabi-gcc/bin/../lib/gcc/arm-none-eabi/4.9.3/../../../../arm-none-eabi/lib/armv7-m\libg.a(lib_a-sbrkr.o) (errno)
c:/microsemi/softconsole_v4.0/arm-none-eabi-gcc/bin/../lib/gcc/arm-none-eabi/4.9.3/armv7-m\libgcc.a(_arm_cmpdf2.o)
                              c:/microsemi/softconsole_v4.0/arm-none-eabi-gcc/bin/../lib/gcc/arm-none-eabi/4.9.3/../../../../arm-none-eabi/lib/armv7-m\libg.a(lib_a-svfprintf.o) (__aeabi_dcmpeq)
c:/microsemi/softconsole_v4.0/arm-none-eabi-gcc/bin/../lib/gcc/arm-none-eabi/4.9.3/armv7-m\libgcc.a(_aeabi_uldivmod.o)
                              c:/microsemi/softconsole_v4.0/arm-none-eabi-gcc/bin/../lib/gcc/arm-none-eabi/4.9.3/../../../../arm-none-eabi/lib/armv7-m\libg.a(lib_a-svfprintf.o) (__aeabi_uldivmod)
c:/microsemi/softconsole_v4.0/arm-none-eabi-gcc/bin/../lib/gcc/arm-none-eabi/4.9.3/armv7-m\libgcc.a(bpabi.o)
                              c:/microsemi/softconsole_v4.0/arm-none-eabi-gcc/bin/../lib/gcc/arm-none-eabi/4.9.3/armv7-m\libgcc.a(_aeabi_uldivmod.o) (__gnu_uldivmod_helper)
c:/microsemi/softconsole_v4.0/arm-none-eabi-gcc/bin/../lib/gcc/arm-none-eabi/4.9.3/armv7-m\libgcc.a(_dvmd_tls.o)
                              c:/microsemi/softconsole_v4.0/arm-none-eabi-gcc/bin/../lib/gcc/arm-none-eabi/4.9.3/armv7-m\libgcc.a(_aeabi_uldivmod.o) (__aeabi_ldiv0)
c:/microsemi/softconsole_v4.0/arm-none-eabi-gcc/bin/../lib/gcc/arm-none-eabi/4.9.3/armv7-m\libgcc.a(_divdi3.o)
                              c:/microsemi/softconsole_v4.0/arm-none-eabi-gcc/bin/../lib/gcc/arm-none-eabi/4.9.3/armv7-m\libgcc.a(bpabi.o) (__divdi3)
c:/microsemi/softconsole_v4.0/arm-none-eabi-gcc/bin/../lib/gcc/arm-none-eabi/4.9.3/armv7-m\libgcc.a(_udivdi3.o)
                              c:/microsemi/softconsole_v4.0/arm-none-eabi-gcc/bin/../lib/gcc/arm-none-eabi/4.9.3/armv7-m\libgcc.a(bpabi.o) (__udivdi3)

Allocating common symbols
Common symbol       size              file

errno               0x4               c:/microsemi/softconsole_v4.0/arm-none-eabi-gcc/bin/../lib/gcc/arm-none-eabi/4.9.3/../../../../arm-none-eabi/lib/armv7-m\libg.a(lib_a-reent.o)
g_mss_spi1          0x84              ./drivers/mss_spi/mss_spi.o
g_mss_uart1         0x40              ./drivers/mss_uart/mss_uart.o
g_mss_uart0         0x40              ./drivers/mss_uart/mss_uart.o
g_mss_spi0          0x84              ./drivers/mss_spi/mss_spi.o

Discarded input sections

 .text          0x00000000        0x0 c:/microsemi/softconsole_v4.0/arm-none-eabi-gcc/bin/../lib/gcc/arm-none-eabi/4.9.3/armv7-m/crti.o
 .data          0x00000000        0x0 c:/microsemi/softconsole_v4.0/arm-none-eabi-gcc/bin/../lib/gcc/arm-none-eabi/4.9.3/armv7-m/crti.o
 .bss           0x00000000        0x0 c:/microsemi/softconsole_v4.0/arm-none-eabi-gcc/bin/../lib/gcc/arm-none-eabi/4.9.3/armv7-m/crti.o
 .data          0x00000000        0x4 c:/microsemi/softconsole_v4.0/arm-none-eabi-gcc/bin/../lib/gcc/arm-none-eabi/4.9.3/armv7-m/crtbegin.o
 .text          0x00000000       0x74 c:/microsemi/softconsole_v4.0/arm-none-eabi-gcc/bin/../lib/gcc/arm-none-eabi/4.9.3/../../../../arm-none-eabi/lib/armv7-m/crt0.o
 .data          0x00000000        0x0 c:/microsemi/softconsole_v4.0/arm-none-eabi-gcc/bin/../lib/gcc/arm-none-eabi/4.9.3/../../../../arm-none-eabi/lib/armv7-m/crt0.o
 .bss           0x00000000        0x0 c:/microsemi/softconsole_v4.0/arm-none-eabi-gcc/bin/../lib/gcc/arm-none-eabi/4.9.3/../../../../arm-none-eabi/lib/armv7-m/crt0.o
 .ARM.extab     0x00000000        0x0 c:/microsemi/softconsole_v4.0/arm-none-eabi-gcc/bin/../lib/gcc/arm-none-eabi/4.9.3/../../../../arm-none-eabi/lib/armv7-m/crt0.o
 .ARM.exidx     0x00000000        0x8 c:/microsemi/softconsole_v4.0/arm-none-eabi-gcc/bin/../lib/gcc/arm-none-eabi/4.9.3/../../../../arm-none-eabi/lib/armv7-m/crt0.o
 .text          0x00000000        0xe ./hal/CortexM3/GNU/hal.o
 .data          0x00000000        0x0 ./hal/CortexM3/GNU/hal.o
 .bss           0x00000000        0x0 ./hal/CortexM3/GNU/hal.o
 .text          0x00000000       0x90 ./hal/CortexM3/GNU/hw_reg_access.o
 .data          0x00000000        0x0 ./hal/CortexM3/GNU/hw_reg_access.o
 .bss           0x00000000        0x0 ./hal/CortexM3/GNU/hw_reg_access.o
 .group         0x00000000        0x8 ./hal/CortexM3/cortex_nvic.o
 .group         0x00000000        0x8 ./hal/CortexM3/cortex_nvic.o
 .group         0x00000000        0x8 ./hal/CortexM3/cortex_nvic.o
 .group         0x00000000        0x8 ./hal/CortexM3/cortex_nvic.o
 .group         0x00000000        0x8 ./hal/CortexM3/cortex_nvic.o
 .group         0x00000000        0x8 ./hal/CortexM3/cortex_nvic.o
 .group         0x00000000        0x8 ./hal/CortexM3/cortex_nvic.o
 .group         0x00000000        0x8 ./hal/CortexM3/cortex_nvic.o
 .group         0x00000000        0x8 ./hal/CortexM3/cortex_nvic.o
 .group         0x00000000        0x8 ./hal/CortexM3/cortex_nvic.o
 .text          0x00000000        0x0 ./hal/CortexM3/cortex_nvic.o
 .data          0x00000000        0x0 ./hal/CortexM3/cortex_nvic.o
 .bss           0x00000000        0x0 ./hal/CortexM3/cortex_nvic.o
 .text.NVIC_init
                0x00000000       0x10 ./hal/CortexM3/cortex_nvic.o
 .text.NVIC_set_handler
                0x00000000       0x18 ./hal/CortexM3/cortex_nvic.o
 .text.NVIC_set_priority
                0x00000000       0x18 ./hal/CortexM3/cortex_nvic.o
 .text.NVIC_enable_interrupt
                0x00000000       0x14 ./hal/CortexM3/cortex_nvic.o
 .text.NVIC_disable_interrupt
                0x00000000       0x14 ./hal/CortexM3/cortex_nvic.o
 .text.NVIC_clear_interrupt
                0x00000000       0x14 ./hal/CortexM3/cortex_nvic.o
 .group         0x00000000        0x8 ./drivers_config/sys_config/sys_config.o
 .group         0x00000000        0x8 ./drivers_config/sys_config/sys_config.o
 .group         0x00000000        0x8 ./drivers_config/sys_config/sys_config.o
 .group         0x00000000        0x8 ./drivers_config/sys_config/sys_config.o
 .group         0x00000000        0x8 ./drivers_config/sys_config/sys_config.o
 .group         0x00000000        0x8 ./drivers_config/sys_config/sys_config.o
 .group         0x00000000        0x8 ./drivers_config/sys_config/sys_config.o
 .group         0x00000000        0x8 ./drivers_config/sys_config/sys_config.o
 .group         0x00000000        0x8 ./drivers_config/sys_config/sys_config.o
 .group         0x00000000        0x8 ./drivers_config/sys_config/sys_config.o
 .group         0x00000000        0x8 ./drivers_config/sys_config/sys_config.o
 .group         0x00000000        0x8 ./drivers_config/sys_config/sys_config.o
 .group         0x00000000        0x8 ./drivers_config/sys_config/sys_config.o
 .text          0x00000000        0x0 ./drivers_config/sys_config/sys_config.o
 .data          0x00000000        0x0 ./drivers_config/sys_config/sys_config.o
 .bss           0x00000000        0x0 ./drivers_config/sys_config/sys_config.o
 .debug_macro   0x00000000      0x862 ./drivers_config/sys_config/sys_config.o
 .debug_macro   0x00000000       0x22 ./drivers_config/sys_config/sys_config.o
 .debug_macro   0x00000000       0x44 ./drivers_config/sys_config/sys_config.o
 .debug_macro   0x00000000       0x58 ./drivers_config/sys_config/sys_config.o
 .debug_macro   0x00000000       0x22 ./drivers_config/sys_config/sys_config.o
 .debug_macro   0x00000000      0x1df ./drivers_config/sys_config/sys_config.o
 .group         0x00000000        0x8 ./drivers/mss_uart/mss_uart.o
 .group         0x00000000        0x8 ./drivers/mss_uart/mss_uart.o
 .group         0x00000000        0x8 ./drivers/mss_uart/mss_uart.o
 .group         0x00000000        0x8 ./drivers/mss_uart/mss_uart.o
 .group         0x00000000        0x8 ./drivers/mss_uart/mss_uart.o
 .group         0x00000000        0x8 ./drivers/mss_uart/mss_uart.o
 .group         0x00000000        0x8 ./drivers/mss_uart/mss_uart.o
 .group         0x00000000        0x8 ./drivers/mss_uart/mss_uart.o
 .group         0x00000000        0x8 ./drivers/mss_uart/mss_uart.o
 .group         0x00000000        0x8 ./drivers/mss_uart/mss_uart.o
 .group         0x00000000        0x8 ./drivers/mss_uart/mss_uart.o
 .group         0x00000000        0x8 ./drivers/mss_uart/mss_uart.o
 .group         0x00000000        0x8 ./drivers/mss_uart/mss_uart.o
 .group         0x00000000        0x8 ./drivers/mss_uart/mss_uart.o
 .group         0x00000000        0x8 ./drivers/mss_uart/mss_uart.o
 .group         0x00000000        0x8 ./drivers/mss_uart/mss_uart.o
 .group         0x00000000        0x8 ./drivers/mss_uart/mss_uart.o
 .group         0x00000000        0x8 ./drivers/mss_uart/mss_uart.o
 .group         0x00000000        0x8 ./drivers/mss_uart/mss_uart.o
 .text          0x00000000        0x0 ./drivers/mss_uart/mss_uart.o
 .data          0x00000000        0x0 ./drivers/mss_uart/mss_uart.o
 .bss           0x00000000        0x0 ./drivers/mss_uart/mss_uart.o
 .text.NVIC_EnableIRQ
                0x00000000       0x30 ./drivers/mss_uart/mss_uart.o
 .text.NVIC_DisableIRQ
                0x00000000       0x34 ./drivers/mss_uart/mss_uart.o
 .text.MSS_UART_lin_init
                0x00000000       0x64 ./drivers/mss_uart/mss_uart.o
 .text.MSS_UART_irda_init
                0x00000000       0xd8 ./drivers/mss_uart/mss_uart.o
 .text.MSS_UART_smartcard_init
                0x00000000       0x7c ./drivers/mss_uart/mss_uart.o
 .text.MSS_UART_polled_tx
                0x00000000       0xc4 ./drivers/mss_uart/mss_uart.o
 .text.MSS_UART_irq_tx
                0x00000000       0x9c ./drivers/mss_uart/mss_uart.o
 .text.MSS_UART_tx_complete
                0x00000000       0x78 ./drivers/mss_uart/mss_uart.o
 .text.MSS_UART_get_rx
                0x00000000       0xc0 ./drivers/mss_uart/mss_uart.o
 .text.MSS_UART_enable_irq
                0x00000000       0xa8 ./drivers/mss_uart/mss_uart.o
 .text.MSS_UART_disable_irq
                0x00000000       0xa0 ./drivers/mss_uart/mss_uart.o
 .text.MSS_UART_set_rx_handler
                0x00000000       0xa4 ./drivers/mss_uart/mss_uart.o
 .text.MSS_UART_set_loopback
                0x00000000       0xd4 ./drivers/mss_uart/mss_uart.o
 .text.MSS_UART_set_rxstatus_handler
                0x00000000       0x74 ./drivers/mss_uart/mss_uart.o
 .text.MSS_UART_set_tx_handler
                0x00000000       0x80 ./drivers/mss_uart/mss_uart.o
 .text.MSS_UART_set_modemstatus_handler
                0x00000000       0x74 ./drivers/mss_uart/mss_uart.o
 .text.MSS_UART_fill_tx_fifo
                0x00000000       0xb8 ./drivers/mss_uart/mss_uart.o
 .text.MSS_UART_get_rx_status
                0x00000000       0x68 ./drivers/mss_uart/mss_uart.o
 .text.MSS_UART_get_modem_status
                0x00000000       0x4c ./drivers/mss_uart/mss_uart.o
 .text.MSS_UART_get_tx_status
                0x00000000       0x64 ./drivers/mss_uart/mss_uart.o
 .text.MSS_UART_set_break
                0x00000000       0x48 ./drivers/mss_uart/mss_uart.o
 .text.MSS_UART_clear_break
                0x00000000       0x48 ./drivers/mss_uart/mss_uart.o
 .text.MSS_UART_set_pidpei_handler
                0x00000000       0x74 ./drivers/mss_uart/mss_uart.o
 .text.MSS_UART_set_linbreak_handler
                0x00000000       0x74 ./drivers/mss_uart/mss_uart.o
 .text.MSS_UART_set_linsync_handler
                0x00000000       0x74 ./drivers/mss_uart/mss_uart.o
 .text.MSS_UART_set_nack_handler
                0x00000000       0x74 ./drivers/mss_uart/mss_uart.o
 .text.MSS_UART_set_rx_timeout_handler
                0x00000000       0x74 ./drivers/mss_uart/mss_uart.o
 .text.MSS_UART_enable_half_duplex
                0x00000000       0x48 ./drivers/mss_uart/mss_uart.o
 .text.MSS_UART_disable_half_duplex
                0x00000000       0x48 ./drivers/mss_uart/mss_uart.o
 .text.MSS_UART_set_rx_endian
                0x00000000       0x70 ./drivers/mss_uart/mss_uart.o
 .text.MSS_UART_set_tx_endian
                0x00000000       0x70 ./drivers/mss_uart/mss_uart.o
 .text.MSS_UART_set_filter_length
                0x00000000       0x58 ./drivers/mss_uart/mss_uart.o
 .text.MSS_UART_enable_afm
                0x00000000       0x48 ./drivers/mss_uart/mss_uart.o
 .text.MSS_UART_disable_afm
                0x00000000       0x48 ./drivers/mss_uart/mss_uart.o
 .text.MSS_UART_enable_afclear
                0x00000000       0x48 ./drivers/mss_uart/mss_uart.o
 .text.MSS_UART_disable_afclear
                0x00000000       0x48 ./drivers/mss_uart/mss_uart.o
 .text.MSS_UART_enable_rx_timeout
                0x00000000       0x54 ./drivers/mss_uart/mss_uart.o
 .text.MSS_UART_disable_rx_timeout
                0x00000000       0x48 ./drivers/mss_uart/mss_uart.o
 .text.MSS_UART_enable_tx_time_guard
                0x00000000       0x54 ./drivers/mss_uart/mss_uart.o
 .text.MSS_UART_disable_tx_time_guard
                0x00000000       0x48 ./drivers/mss_uart/mss_uart.o
 .text.MSS_UART_set_address
                0x00000000       0x4c ./drivers/mss_uart/mss_uart.o
 .text.MSS_UART_set_ready_mode
                0x00000000       0x70 ./drivers/mss_uart/mss_uart.o
 .text.MSS_UART_set_usart_mode
                0x00000000       0x80 ./drivers/mss_uart/mss_uart.o
 .debug_macro   0x00000000      0x862 ./drivers/mss_uart/mss_uart.o
 .debug_macro   0x00000000       0x26 ./drivers/mss_uart/mss_uart.o
 .debug_macro   0x00000000       0x3a ./drivers/mss_uart/mss_uart.o
 .debug_macro   0x00000000       0x22 ./drivers/mss_uart/mss_uart.o
 .debug_macro   0x00000000       0x44 ./drivers/mss_uart/mss_uart.o
 .debug_macro   0x00000000       0x58 ./drivers/mss_uart/mss_uart.o
 .debug_macro   0x00000000       0x22 ./drivers/mss_uart/mss_uart.o
 .debug_macro   0x00000000      0x1df ./drivers/mss_uart/mss_uart.o
 .debug_macro   0x00000000       0x34 ./drivers/mss_uart/mss_uart.o
 .debug_macro   0x00000000      0xc83 ./drivers/mss_uart/mss_uart.o
 .debug_macro   0x00000000      0x265 ./drivers/mss_uart/mss_uart.o
 .debug_macro   0x00000000       0x58 ./drivers/mss_uart/mss_uart.o
 .debug_macro   0x00000000       0x35 ./drivers/mss_uart/mss_uart.o
 .debug_macro   0x00000000       0x9c ./drivers/mss_uart/mss_uart.o
 .debug_macro   0x00000000       0x1c ./drivers/mss_uart/mss_uart.o
 .group         0x00000000        0x8 ./drivers/mss_sys_services/mss_comblk.o
 .group         0x00000000        0x8 ./drivers/mss_sys_services/mss_comblk.o
 .group         0x00000000        0x8 ./drivers/mss_sys_services/mss_comblk.o
 .group         0x00000000        0x8 ./drivers/mss_sys_services/mss_comblk.o
 .group         0x00000000        0x8 ./drivers/mss_sys_services/mss_comblk.o
 .group         0x00000000        0x8 ./drivers/mss_sys_services/mss_comblk.o
 .group         0x00000000        0x8 ./drivers/mss_sys_services/mss_comblk.o
 .group         0x00000000        0x8 ./drivers/mss_sys_services/mss_comblk.o
 .group         0x00000000        0x8 ./drivers/mss_sys_services/mss_comblk.o
 .group         0x00000000        0x8 ./drivers/mss_sys_services/mss_comblk.o
 .group         0x00000000        0x8 ./drivers/mss_sys_services/mss_comblk.o
 .group         0x00000000        0x8 ./drivers/mss_sys_services/mss_comblk.o
 .group         0x00000000        0x8 ./drivers/mss_sys_services/mss_comblk.o
 .group         0x00000000        0x8 ./drivers/mss_sys_services/mss_comblk.o
 .group         0x00000000        0x8 ./drivers/mss_sys_services/mss_comblk.o
 .text          0x00000000        0x0 ./drivers/mss_sys_services/mss_comblk.o
 .data          0x00000000        0x0 ./drivers/mss_sys_services/mss_comblk.o
 .bss           0x00000000        0x0 ./drivers/mss_sys_services/mss_comblk.o
 .text.NVIC_EnableIRQ
                0x00000000       0x30 ./drivers/mss_sys_services/mss_comblk.o
 .text.NVIC_DisableIRQ
                0x00000000       0x34 ./drivers/mss_sys_services/mss_comblk.o
 .text.NVIC_ClearPendingIRQ
                0x00000000       0x34 ./drivers/mss_sys_services/mss_comblk.o
 .text.MSS_COMBLK_init
                0x00000000       0xd4 ./drivers/mss_sys_services/mss_comblk.o
 .text.MSS_COMBLK_send_cmd_with_ptr
                0x00000000       0xf8 ./drivers/mss_sys_services/mss_comblk.o
 .text.MSS_COMBLK_send_cmd
                0x00000000      0x12c ./drivers/mss_sys_services/mss_comblk.o
 .text.MSS_COMBLK_send_paged_cmd
                0x00000000      0x12c ./drivers/mss_sys_services/mss_comblk.o
 .text.send_cmd_opcode
                0x00000000       0x3c ./drivers/mss_sys_services/mss_comblk.o
 .debug_macro   0x00000000      0x862 ./drivers/mss_sys_services/mss_comblk.o
 .debug_macro   0x00000000       0x26 ./drivers/mss_sys_services/mss_comblk.o
 .debug_macro   0x00000000       0x3a ./drivers/mss_sys_services/mss_comblk.o
 .debug_macro   0x00000000       0x22 ./drivers/mss_sys_services/mss_comblk.o
 .debug_macro   0x00000000       0x44 ./drivers/mss_sys_services/mss_comblk.o
 .debug_macro   0x00000000       0x58 ./drivers/mss_sys_services/mss_comblk.o
 .debug_macro   0x00000000       0x22 ./drivers/mss_sys_services/mss_comblk.o
 .debug_macro   0x00000000      0x1df ./drivers/mss_sys_services/mss_comblk.o
 .debug_macro   0x00000000       0x34 ./drivers/mss_sys_services/mss_comblk.o
 .debug_macro   0x00000000      0xc83 ./drivers/mss_sys_services/mss_comblk.o
 .debug_macro   0x00000000      0x265 ./drivers/mss_sys_services/mss_comblk.o
 .debug_macro   0x00000000       0x58 ./drivers/mss_sys_services/mss_comblk.o
 .debug_macro   0x00000000       0x35 ./drivers/mss_sys_services/mss_comblk.o
 .debug_macro   0x00000000       0x9c ./drivers/mss_sys_services/mss_comblk.o
 .debug_macro   0x00000000       0x1c ./drivers/mss_sys_services/mss_comblk.o
 .group         0x00000000        0x8 ./drivers/mss_sys_services/mss_sys_services.o
 .group         0x00000000        0x8 ./drivers/mss_sys_services/mss_sys_services.o
 .group         0x00000000        0x8 ./drivers/mss_sys_services/mss_sys_services.o
 .group         0x00000000        0x8 ./drivers/mss_sys_services/mss_sys_services.o
 .group         0x00000000        0x8 ./drivers/mss_sys_services/mss_sys_services.o
 .group         0x00000000        0x8 ./drivers/mss_sys_services/mss_sys_services.o
 .group         0x00000000        0x8 ./drivers/mss_sys_services/mss_sys_services.o
 .group         0x00000000        0x8 ./drivers/mss_sys_services/mss_sys_services.o
 .group         0x00000000        0x8 ./drivers/mss_sys_services/mss_sys_services.o
 .group         0x00000000        0x8 ./drivers/mss_sys_services/mss_sys_services.o
 .group         0x00000000        0x8 ./drivers/mss_sys_services/mss_sys_services.o
 .group         0x00000000        0x8 ./drivers/mss_sys_services/mss_sys_services.o
 .group         0x00000000        0x8 ./drivers/mss_sys_services/mss_sys_services.o
 .group         0x00000000        0x8 ./drivers/mss_sys_services/mss_sys_services.o
 .group         0x00000000        0x8 ./drivers/mss_sys_services/mss_sys_services.o
 .group         0x00000000        0x8 ./drivers/mss_sys_services/mss_sys_services.o
 .group         0x00000000        0x8 ./drivers/mss_sys_services/mss_sys_services.o
 .group         0x00000000        0x8 ./drivers/mss_sys_services/mss_sys_services.o
 .group         0x00000000        0x8 ./drivers/mss_sys_services/mss_sys_services.o
 .group         0x00000000        0x8 ./drivers/mss_sys_services/mss_sys_services.o
 .group         0x00000000        0x8 ./drivers/mss_sys_services/mss_sys_services.o
 .group         0x00000000        0x8 ./drivers/mss_sys_services/mss_sys_services.o
 .group         0x00000000        0x8 ./drivers/mss_sys_services/mss_sys_services.o
 .group         0x00000000        0x8 ./drivers/mss_sys_services/mss_sys_services.o
 .text          0x00000000        0x0 ./drivers/mss_sys_services/mss_sys_services.o
 .data          0x00000000        0x0 ./drivers/mss_sys_services/mss_sys_services.o
 .bss           0x00000000        0x0 ./drivers/mss_sys_services/mss_sys_services.o
 .bss.g_request_in_progress
                0x00000000        0x1 ./drivers/mss_sys_services/mss_sys_services.o
 .bss.g_last_response_length
                0x00000000        0x2 ./drivers/mss_sys_services/mss_sys_services.o
 .bss.g_event_handler
                0x00000000        0x4 ./drivers/mss_sys_services/mss_sys_services.o
 .bss.g_response
                0x00000000        0x2 ./drivers/mss_sys_services/mss_sys_services.o
 .bss.g_initial_mssddr_facc1_cr
                0x00000000        0x4 ./drivers/mss_sys_services/mss_sys_services.o
 .text.MSS_SYS_init
                0x00000000       0x50 ./drivers/mss_sys_services/mss_sys_services.o
 .text.asynchronous_event_handler
                0x00000000       0xec ./drivers/mss_sys_services/mss_sys_services.o
 .text.MSS_SYS_get_serial_number
                0x00000000       0x28 ./drivers/mss_sys_services/mss_sys_services.o
 .text.MSS_SYS_get_user_code
                0x00000000       0x28 ./drivers/mss_sys_services/mss_sys_services.o
 .text.MSS_SYS_get_design_version
                0x00000000       0x28 ./drivers/mss_sys_services/mss_sys_services.o
 .text.MSS_SYS_get_device_certificate
                0x00000000       0x28 ./drivers/mss_sys_services/mss_sys_services.o
 .text.MSS_SYS_get_secondary_device_certificate
                0x00000000       0x70 ./drivers/mss_sys_services/mss_sys_services.o
 .data.div1_seq
                0x00000000        0x4 ./drivers/mss_sys_services/mss_sys_services.o
 .data.div2_seq
                0x00000000        0x3 ./drivers/mss_sys_services/mss_sys_services.o
 .data.div4_seq
                0x00000000        0x5 ./drivers/mss_sys_services/mss_sys_services.o
 .data.div8_seq
                0x00000000        0x3 ./drivers/mss_sys_services/mss_sys_services.o
 .data.div16_seq
                0x00000000        0x2 ./drivers/mss_sys_services/mss_sys_services.o
 .data.div32_seq
                0x00000000        0x2 ./drivers/mss_sys_services/mss_sys_services.o
 .bss.divisor   0x00000000       0x10 ./drivers/mss_sys_services/mss_sys_services.o
 .bss.ind       0x00000000        0x1 ./drivers/mss_sys_services/mss_sys_services.o
 .text.determine_seq
                0x00000000       0xb0 ./drivers/mss_sys_services/mss_sys_services.o
 .text.clk_switching_fix
                0x00000000      0x29c ./drivers/mss_sys_services/mss_sys_services.o
 .text.revert_clk_config
                0x00000000      0x1bc ./drivers/mss_sys_services/mss_sys_services.o
 .text.MSS_SYS_flash_freeze
                0x00000000       0xbc ./drivers/mss_sys_services/mss_sys_services.o
 .text.MSS_SYS_128bit_aes
                0x00000000       0x98 ./drivers/mss_sys_services/mss_sys_services.o
 .text.MSS_SYS_256bit_aes
                0x00000000       0x98 ./drivers/mss_sys_services/mss_sys_services.o
 .text.MSS_SYS_sha256
                0x00000000       0x6c ./drivers/mss_sys_services/mss_sys_services.o
 .text.MSS_SYS_hmac
                0x00000000       0x84 ./drivers/mss_sys_services/mss_sys_services.o
 .text.MSS_SYS_key_tree
                0x00000000       0x70 ./drivers/mss_sys_services/mss_sys_services.o
 .text.MSS_SYS_challenge_response
                0x00000000       0x68 ./drivers/mss_sys_services/mss_sys_services.o
 .text.MSS_SYS_nrbg_reset
                0x00000000       0x64 ./drivers/mss_sys_services/mss_sys_services.o
 .text.MSS_SYS_nrbg_self_test
                0x00000000       0x54 ./drivers/mss_sys_services/mss_sys_services.o
 .text.MSS_SYS_nrbg_instantiate
                0x00000000       0x60 ./drivers/mss_sys_services/mss_sys_services.o
 .text.MSS_SYS_nrbg_generate
                0x00000000       0x6c ./drivers/mss_sys_services/mss_sys_services.o
 .text.MSS_SYS_nrbg_reseed
                0x00000000       0x48 ./drivers/mss_sys_services/mss_sys_services.o
 .text.MSS_SYS_nrbg_uninstantiate
                0x00000000       0x60 ./drivers/mss_sys_services/mss_sys_services.o
 .text.MSS_SYS_zeroize_device
                0x00000000       0x80 ./drivers/mss_sys_services/mss_sys_services.o
 .bss.g_isp_response
                0x00000000        0x2 ./drivers/mss_sys_services/mss_sys_services.o
 .bss.g_isp_completion_handler
                0x00000000        0x4 ./drivers/mss_sys_services/mss_sys_services.o
 .bss.g_isp_page_read_handler
                0x00000000        0x4 ./drivers/mss_sys_services/mss_sys_services.o
 .data.g_initial_envm_cr
                0x00000000        0x4 ./drivers/mss_sys_services/mss_sys_services.o
 .bss.g_initial_mssddr_facc2_cr
                0x00000000        0x4 ./drivers/mss_sys_services/mss_sys_services.o
 .bss.g_mode    0x00000000        0x1 ./drivers/mss_sys_services/mss_sys_services.o
 .data.wait_for_clock_switch
                0x00000000        0x1 ./drivers/mss_sys_services/mss_sys_services.o
 .text.isp_page_read_handler
                0x00000000       0x88 ./drivers/mss_sys_services/mss_sys_services.o
 .text.isp_sys_completion_handler
                0x00000000       0x58 ./drivers/mss_sys_services/mss_sys_services.o
 .text.MSS_SYS_start_isp
                0x00000000       0xf8 ./drivers/mss_sys_services/mss_sys_services.o
 .text.MSS_SYS_initiate_iap
                0x00000000      0x120 ./drivers/mss_sys_services/mss_sys_services.o
 .text.MSS_SYS_check_digest
                0x00000000       0xd4 ./drivers/mss_sys_services/mss_sys_services.o
 .text.MSS_SYS_puf_create_activation_code
                0x00000000       0x80 ./drivers/mss_sys_services/mss_sys_services.o
 .text.MSS_SYS_puf_delete_activation_code
                0x00000000       0x80 ./drivers/mss_sys_services/mss_sys_services.o
 .text.MSS_SYS_puf_get_number_of_keys
                0x00000000       0xa4 ./drivers/mss_sys_services/mss_sys_services.o
 .text.MSS_SYS_puf_enroll_key
                0x00000000       0xc8 ./drivers/mss_sys_services/mss_sys_services.o
 .text.MSS_SYS_puf_delete_key
                0x00000000       0x8c ./drivers/mss_sys_services/mss_sys_services.o
 .text.MSS_SYS_puf_fetch_key
                0x00000000       0xa4 ./drivers/mss_sys_services/mss_sys_services.o
 .text.MSS_SYS_puf_export_keycodes
                0x00000000       0x88 ./drivers/mss_sys_services/mss_sys_services.o
 .text.MSS_SYS_puf_import_keycodes
                0x00000000       0x88 ./drivers/mss_sys_services/mss_sys_services.o
 .text.MSS_SYS_puf_fetch_ecc_public_key
                0x00000000       0x84 ./drivers/mss_sys_services/mss_sys_services.o
 .text.MSS_SYS_puf_get_random_seed
                0x00000000       0x84 ./drivers/mss_sys_services/mss_sys_services.o
 .text.MSS_SYS_ecc_point_multiplication
                0x00000000       0xa8 ./drivers/mss_sys_services/mss_sys_services.o
 .text.MSS_SYS_ecc_point_addition
                0x00000000       0xa8 ./drivers/mss_sys_services/mss_sys_services.o
 .rodata        0x00000000       0x60 ./drivers/mss_sys_services/mss_sys_services.o
 .text.MSS_SYS_ecc_get_base_point
                0x00000000       0x30 ./drivers/mss_sys_services/mss_sys_services.o
 .text.MSS_SYS_start_clock_monitor
                0x00000000       0xa4 ./drivers/mss_sys_services/mss_sys_services.o
 .text.MSS_SYS_stop_clock_monitor
                0x00000000       0xa4 ./drivers/mss_sys_services/mss_sys_services.o
 .text.MSS_SYS_enable_puf_power_down
                0x00000000       0xa4 ./drivers/mss_sys_services/mss_sys_services.o
 .text.MSS_SYS_disable_puf_power_down
                0x00000000       0xa4 ./drivers/mss_sys_services/mss_sys_services.o
 .text.MSS_SYS_clear_lock_parity
                0x00000000       0xa4 ./drivers/mss_sys_services/mss_sys_services.o
 .text.MSS_SYS_clear_mesh_short
                0x00000000       0xa4 ./drivers/mss_sys_services/mss_sys_services.o
 .text.execute_service
                0x00000000       0x64 ./drivers/mss_sys_services/mss_sys_services.o
 .text.request_completion_handler
                0x00000000       0x2c ./drivers/mss_sys_services/mss_sys_services.o
 .text.signal_request_start
                0x00000000       0x2c ./drivers/mss_sys_services/mss_sys_services.o
 .text.wait_for_request_completion
                0x00000000       0x28 ./drivers/mss_sys_services/mss_sys_services.o
 .text.write_ptr_value_into_array
                0x00000000       0x54 ./drivers/mss_sys_services/mss_sys_services.o
 .text.write_array_into_ptr_value
                0x00000000       0x5c ./drivers/mss_sys_services/mss_sys_services.o
 .debug_macro   0x00000000      0x862 ./drivers/mss_sys_services/mss_sys_services.o
 .debug_macro   0x00000000       0x26 ./drivers/mss_sys_services/mss_sys_services.o
 .debug_macro   0x00000000       0x3a ./drivers/mss_sys_services/mss_sys_services.o
 .debug_macro   0x00000000       0x22 ./drivers/mss_sys_services/mss_sys_services.o
 .debug_macro   0x00000000       0x44 ./drivers/mss_sys_services/mss_sys_services.o
 .debug_macro   0x00000000       0x58 ./drivers/mss_sys_services/mss_sys_services.o
 .debug_macro   0x00000000       0x22 ./drivers/mss_sys_services/mss_sys_services.o
 .debug_macro   0x00000000      0x1df ./drivers/mss_sys_services/mss_sys_services.o
 .debug_macro   0x00000000       0x34 ./drivers/mss_sys_services/mss_sys_services.o
 .debug_macro   0x00000000      0xc83 ./drivers/mss_sys_services/mss_sys_services.o
 .debug_macro   0x00000000      0x265 ./drivers/mss_sys_services/mss_sys_services.o
 .debug_macro   0x00000000       0x58 ./drivers/mss_sys_services/mss_sys_services.o
 .debug_macro   0x00000000       0x35 ./drivers/mss_sys_services/mss_sys_services.o
 .debug_macro   0x00000000       0x9c ./drivers/mss_sys_services/mss_sys_services.o
 .debug_macro   0x00000000       0x1c ./drivers/mss_sys_services/mss_sys_services.o
 .debug_macro   0x00000000      0x16d ./drivers/mss_sys_services/mss_sys_services.o
 .group         0x00000000        0x8 ./drivers/mss_spi/mss_spi.o
 .group         0x00000000        0x8 ./drivers/mss_spi/mss_spi.o
 .group         0x00000000        0x8 ./drivers/mss_spi/mss_spi.o
 .group         0x00000000        0x8 ./drivers/mss_spi/mss_spi.o
 .group         0x00000000        0x8 ./drivers/mss_spi/mss_spi.o
 .group         0x00000000        0x8 ./drivers/mss_spi/mss_spi.o
 .group         0x00000000        0x8 ./drivers/mss_spi/mss_spi.o
 .group         0x00000000        0x8 ./drivers/mss_spi/mss_spi.o
 .group         0x00000000        0x8 ./drivers/mss_spi/mss_spi.o
 .group         0x00000000        0x8 ./drivers/mss_spi/mss_spi.o
 .group         0x00000000        0x8 ./drivers/mss_spi/mss_spi.o
 .group         0x00000000        0x8 ./drivers/mss_spi/mss_spi.o
 .group         0x00000000        0x8 ./drivers/mss_spi/mss_spi.o
 .group         0x00000000        0x8 ./drivers/mss_spi/mss_spi.o
 .group         0x00000000        0x8 ./drivers/mss_spi/mss_spi.o
 .group         0x00000000        0x8 ./drivers/mss_spi/mss_spi.o
 .group         0x00000000        0x8 ./drivers/mss_spi/mss_spi.o
 .group         0x00000000        0x8 ./drivers/mss_spi/mss_spi.o
 .group         0x00000000        0x8 ./drivers/mss_spi/mss_spi.o
 .group         0x00000000        0x8 ./drivers/mss_spi/mss_spi.o
 .group         0x00000000        0x8 ./drivers/mss_spi/mss_spi.o
 .group         0x00000000        0x8 ./drivers/mss_spi/mss_spi.o
 .group         0x00000000        0x8 ./drivers/mss_spi/mss_spi.o
 .text          0x00000000        0x0 ./drivers/mss_spi/mss_spi.o
 .data          0x00000000        0x0 ./drivers/mss_spi/mss_spi.o
 .bss           0x00000000        0x0 ./drivers/mss_spi/mss_spi.o
 .text.MSS_SPI_configure_slave_mode
                0x00000000       0xc4 ./drivers/mss_spi/mss_spi.o
 .text.MSS_SPI_transfer_frame
                0x00000000       0xb8 ./drivers/mss_spi/mss_spi.o
 .text.MSS_SPI_set_frame_rx_handler
                0x00000000       0xe0 ./drivers/mss_spi/mss_spi.o
 .text.MSS_SPI_set_slave_tx_frame
                0x00000000       0xf8 ./drivers/mss_spi/mss_spi.o
 .text.MSS_SPI_set_slave_block_buffers
                0x00000000      0x20c ./drivers/mss_spi/mss_spi.o
 .text.MSS_SPI_set_cmd_handler
                0x00000000       0xb0 ./drivers/mss_spi/mss_spi.o
 .text.MSS_SPI_set_cmd_response
                0x00000000       0x30 ./drivers/mss_spi/mss_spi.o
 .text.MSS_SPI_enable
                0x00000000       0x38 ./drivers/mss_spi/mss_spi.o
 .text.MSS_SPI_disable
                0x00000000       0x38 ./drivers/mss_spi/mss_spi.o
 .text.MSS_SPI_set_transfer_byte_count
                0x00000000       0x74 ./drivers/mss_spi/mss_spi.o
 .text.MSS_SPI_tx_done
                0x00000000       0x24 ./drivers/mss_spi/mss_spi.o
 .debug_macro   0x00000000      0x862 ./drivers/mss_spi/mss_spi.o
 .debug_macro   0x00000000       0x26 ./drivers/mss_spi/mss_spi.o
 .debug_macro   0x00000000       0x3a ./drivers/mss_spi/mss_spi.o
 .debug_macro   0x00000000       0x22 ./drivers/mss_spi/mss_spi.o
 .debug_macro   0x00000000       0x44 ./drivers/mss_spi/mss_spi.o
 .debug_macro   0x00000000       0x58 ./drivers/mss_spi/mss_spi.o
 .debug_macro   0x00000000       0x22 ./drivers/mss_spi/mss_spi.o
 .debug_macro   0x00000000      0x1df ./drivers/mss_spi/mss_spi.o
 .debug_macro   0x00000000       0x34 ./drivers/mss_spi/mss_spi.o
 .debug_macro   0x00000000      0xc83 ./drivers/mss_spi/mss_spi.o
 .debug_macro   0x00000000      0x265 ./drivers/mss_spi/mss_spi.o
 .debug_macro   0x00000000       0x58 ./drivers/mss_spi/mss_spi.o
 .debug_macro   0x00000000       0x35 ./drivers/mss_spi/mss_spi.o
 .debug_macro   0x00000000       0x9c ./drivers/mss_spi/mss_spi.o
 .debug_macro   0x00000000       0x1c ./drivers/mss_spi/mss_spi.o
 .debug_macro   0x00000000      0x16d ./drivers/mss_spi/mss_spi.o
 .debug_macro   0x00000000       0x52 ./drivers/mss_spi/mss_spi.o
 .debug_macro   0x00000000       0x16 ./drivers/mss_spi/mss_spi.o
 .debug_macro   0x00000000       0x43 ./drivers/mss_spi/mss_spi.o
 .debug_macro   0x00000000      0x180 ./drivers/mss_spi/mss_spi.o
 .debug_macro   0x00000000      0x27a ./drivers/mss_spi/mss_spi.o
 .debug_macro   0x00000000       0x10 ./drivers/mss_spi/mss_spi.o
 .debug_macro   0x00000000       0x35 ./drivers/mss_spi/mss_spi.o
 .group         0x00000000        0x8 ./drivers/mss_nvm/mss_nvm.o
 .group         0x00000000        0x8 ./drivers/mss_nvm/mss_nvm.o
 .group         0x00000000        0x8 ./drivers/mss_nvm/mss_nvm.o
 .group         0x00000000        0x8 ./drivers/mss_nvm/mss_nvm.o
 .group         0x00000000        0x8 ./drivers/mss_nvm/mss_nvm.o
 .group         0x00000000        0x8 ./drivers/mss_nvm/mss_nvm.o
 .group         0x00000000        0x8 ./drivers/mss_nvm/mss_nvm.o
 .group         0x00000000        0x8 ./drivers/mss_nvm/mss_nvm.o
 .group         0x00000000        0x8 ./drivers/mss_nvm/mss_nvm.o
 .group         0x00000000        0x8 ./drivers/mss_nvm/mss_nvm.o
 .group         0x00000000        0x8 ./drivers/mss_nvm/mss_nvm.o
 .group         0x00000000        0x8 ./drivers/mss_nvm/mss_nvm.o
 .group         0x00000000        0x8 ./drivers/mss_nvm/mss_nvm.o
 .group         0x00000000        0x8 ./drivers/mss_nvm/mss_nvm.o
 .group         0x00000000        0x8 ./drivers/mss_nvm/mss_nvm.o
 .group         0x00000000        0x8 ./drivers/mss_nvm/mss_nvm.o
 .text          0x00000000        0x0 ./drivers/mss_nvm/mss_nvm.o
 .data          0x00000000        0x0 ./drivers/mss_nvm/mss_nvm.o
 .bss           0x00000000        0x0 ./drivers/mss_nvm/mss_nvm.o
 .rodata.g_nvm  0x00000000        0x8 ./drivers/mss_nvm/mss_nvm.o
 .rodata.g_nvm32
                0x00000000        0x8 ./drivers/mss_nvm/mss_nvm.o
 .bss.g_do_not_lock_page
                0x00000000        0x1 ./drivers/mss_nvm/mss_nvm.o
 .text.NVM_write
                0x00000000      0x1f0 ./drivers/mss_nvm/mss_nvm.o
 .text.get_error_code
                0x00000000       0x5c ./drivers/mss_nvm/mss_nvm.o
 .text.NVM_unlock
                0x00000000      0x1bc ./drivers/mss_nvm/mss_nvm.o
 .bss.g_envm_ctrl_locks
                0x00000000        0x1 ./drivers/mss_nvm/mss_nvm.o
 .text.request_nvm_access
                0x00000000       0x88 ./drivers/mss_nvm/mss_nvm.o
 .text.get_ctrl_access
                0x00000000       0x60 ./drivers/mss_nvm/mss_nvm.o
 .text.release_ctrl_access
                0x00000000       0x68 ./drivers/mss_nvm/mss_nvm.o
 .text.wait_nvm_ready
                0x00000000       0x48 ./drivers/mss_nvm/mss_nvm.o
 .text.write_nvm
                0x00000000      0x114 ./drivers/mss_nvm/mss_nvm.o
 .text.get_remaining_page_length
                0x00000000       0x40 ./drivers/mss_nvm/mss_nvm.o
 .text.fill_wd_buffer
                0x00000000      0x10c ./drivers/mss_nvm/mss_nvm.o
 .text.NVM_read_page_write_count
                0x00000000      0x104 ./drivers/mss_nvm/mss_nvm.o
 .text.check_protection_reserved_nvm
                0x00000000      0x4d0 ./drivers/mss_nvm/mss_nvm.o
 .text.protection_check
                0x00000000       0x30 ./drivers/mss_nvm/mss_nvm.o
 .debug_macro   0x00000000      0x862 ./drivers/mss_nvm/mss_nvm.o
 .debug_macro   0x00000000       0x26 ./drivers/mss_nvm/mss_nvm.o
 .debug_macro   0x00000000       0x3a ./drivers/mss_nvm/mss_nvm.o
 .debug_macro   0x00000000       0x22 ./drivers/mss_nvm/mss_nvm.o
 .debug_macro   0x00000000       0x44 ./drivers/mss_nvm/mss_nvm.o
 .debug_macro   0x00000000       0x58 ./drivers/mss_nvm/mss_nvm.o
 .debug_macro   0x00000000       0x22 ./drivers/mss_nvm/mss_nvm.o
 .debug_macro   0x00000000      0x1df ./drivers/mss_nvm/mss_nvm.o
 .debug_macro   0x00000000       0x34 ./drivers/mss_nvm/mss_nvm.o
 .debug_macro   0x00000000      0xc83 ./drivers/mss_nvm/mss_nvm.o
 .debug_macro   0x00000000      0x265 ./drivers/mss_nvm/mss_nvm.o
 .debug_macro   0x00000000       0x58 ./drivers/mss_nvm/mss_nvm.o
 .debug_macro   0x00000000       0x35 ./drivers/mss_nvm/mss_nvm.o
 .debug_macro   0x00000000       0x9c ./drivers/mss_nvm/mss_nvm.o
 .debug_macro   0x00000000       0x1c ./drivers/mss_nvm/mss_nvm.o
 .group         0x00000000        0x8 ./drivers/mss_hpdma/mss_hpdma.o
 .group         0x00000000        0x8 ./drivers/mss_hpdma/mss_hpdma.o
 .group         0x00000000        0x8 ./drivers/mss_hpdma/mss_hpdma.o
 .group         0x00000000        0x8 ./drivers/mss_hpdma/mss_hpdma.o
 .group         0x00000000        0x8 ./drivers/mss_hpdma/mss_hpdma.o
 .group         0x00000000        0x8 ./drivers/mss_hpdma/mss_hpdma.o
 .group         0x00000000        0x8 ./drivers/mss_hpdma/mss_hpdma.o
 .group         0x00000000        0x8 ./drivers/mss_hpdma/mss_hpdma.o
 .group         0x00000000        0x8 ./drivers/mss_hpdma/mss_hpdma.o
 .group         0x00000000        0x8 ./drivers/mss_hpdma/mss_hpdma.o
 .group         0x00000000        0x8 ./drivers/mss_hpdma/mss_hpdma.o
 .group         0x00000000        0x8 ./drivers/mss_hpdma/mss_hpdma.o
 .group         0x00000000        0x8 ./drivers/mss_hpdma/mss_hpdma.o
 .group         0x00000000        0x8 ./drivers/mss_hpdma/mss_hpdma.o
 .group         0x00000000        0x8 ./drivers/mss_hpdma/mss_hpdma.o
 .group         0x00000000        0x8 ./drivers/mss_hpdma/mss_hpdma.o
 .text          0x00000000        0x0 ./drivers/mss_hpdma/mss_hpdma.o
 .data          0x00000000        0x0 ./drivers/mss_hpdma/mss_hpdma.o
 .bss           0x00000000        0x0 ./drivers/mss_hpdma/mss_hpdma.o
 .text.NVIC_EnableIRQ
                0x00000000       0x30 ./drivers/mss_hpdma/mss_hpdma.o
 .text.NVIC_DisableIRQ
                0x00000000       0x34 ./drivers/mss_hpdma/mss_hpdma.o
 .text.NVIC_ClearPendingIRQ
                0x00000000       0x34 ./drivers/mss_hpdma/mss_hpdma.o
 .text.MSS_HPDMA_init
                0x00000000       0xb4 ./drivers/mss_hpdma/mss_hpdma.o
 .text.MSS_HPDMA_start
                0x00000000       0xd0 ./drivers/mss_hpdma/mss_hpdma.o
 .text.MSS_HPDMA_pause
                0x00000000       0x2c ./drivers/mss_hpdma/mss_hpdma.o
 .text.MSS_HPDMA_resume
                0x00000000       0x2c ./drivers/mss_hpdma/mss_hpdma.o
 .text.MSS_HPDMA_abort
                0x00000000       0x48 ./drivers/mss_hpdma/mss_hpdma.o
 .text.MSS_HPDMA_get_transfer_status
                0x00000000       0x18 ./drivers/mss_hpdma/mss_hpdma.o
 .text.MSS_HPDMA_set_handler
                0x00000000       0x2c ./drivers/mss_hpdma/mss_hpdma.o
 .debug_macro   0x00000000      0x862 ./drivers/mss_hpdma/mss_hpdma.o
 .debug_macro   0x00000000       0x58 ./drivers/mss_hpdma/mss_hpdma.o
 .debug_macro   0x00000000       0x22 ./drivers/mss_hpdma/mss_hpdma.o
 .debug_macro   0x00000000       0x35 ./drivers/mss_hpdma/mss_hpdma.o
 .debug_macro   0x00000000       0x9c ./drivers/mss_hpdma/mss_hpdma.o
 .debug_macro   0x00000000       0x1c ./drivers/mss_hpdma/mss_hpdma.o
 .debug_macro   0x00000000       0x26 ./drivers/mss_hpdma/mss_hpdma.o
 .debug_macro   0x00000000       0x3a ./drivers/mss_hpdma/mss_hpdma.o
 .debug_macro   0x00000000       0x58 ./drivers/mss_hpdma/mss_hpdma.o
 .debug_macro   0x00000000       0x22 ./drivers/mss_hpdma/mss_hpdma.o
 .debug_macro   0x00000000      0x1df ./drivers/mss_hpdma/mss_hpdma.o
 .debug_macro   0x00000000       0x34 ./drivers/mss_hpdma/mss_hpdma.o
 .debug_macro   0x00000000      0xc83 ./drivers/mss_hpdma/mss_hpdma.o
 .debug_macro   0x00000000      0x265 ./drivers/mss_hpdma/mss_hpdma.o
 .group         0x00000000        0x8 ./drivers/mss_gpio/mss_gpio.o
 .group         0x00000000        0x8 ./drivers/mss_gpio/mss_gpio.o
 .group         0x00000000        0x8 ./drivers/mss_gpio/mss_gpio.o
 .group         0x00000000        0x8 ./drivers/mss_gpio/mss_gpio.o
 .group         0x00000000        0x8 ./drivers/mss_gpio/mss_gpio.o
 .group         0x00000000        0x8 ./drivers/mss_gpio/mss_gpio.o
 .group         0x00000000        0x8 ./drivers/mss_gpio/mss_gpio.o
 .group         0x00000000        0x8 ./drivers/mss_gpio/mss_gpio.o
 .group         0x00000000        0x8 ./drivers/mss_gpio/mss_gpio.o
 .group         0x00000000        0x8 ./drivers/mss_gpio/mss_gpio.o
 .group         0x00000000        0x8 ./drivers/mss_gpio/mss_gpio.o
 .group         0x00000000        0x8 ./drivers/mss_gpio/mss_gpio.o
 .group         0x00000000        0x8 ./drivers/mss_gpio/mss_gpio.o
 .group         0x00000000        0x8 ./drivers/mss_gpio/mss_gpio.o
 .group         0x00000000        0x8 ./drivers/mss_gpio/mss_gpio.o
 .group         0x00000000        0x8 ./drivers/mss_gpio/mss_gpio.o
 .text          0x00000000        0x0 ./drivers/mss_gpio/mss_gpio.o
 .data          0x00000000        0x0 ./drivers/mss_gpio/mss_gpio.o
 .bss           0x00000000        0x0 ./drivers/mss_gpio/mss_gpio.o
 .text.NVIC_EnableIRQ
                0x00000000       0x30 ./drivers/mss_gpio/mss_gpio.o
 .text.MSS_GPIO_set_output
                0x00000000       0x64 ./drivers/mss_gpio/mss_gpio.o
 .text.MSS_GPIO_drive_inout
                0x00000000       0xec ./drivers/mss_gpio/mss_gpio.o
 .text.MSS_GPIO_enable_irq
                0x00000000       0x58 ./drivers/mss_gpio/mss_gpio.o
 .text.MSS_GPIO_disable_irq
                0x00000000       0x48 ./drivers/mss_gpio/mss_gpio.o
 .text.MSS_GPIO_clear_irq
                0x00000000       0x3c ./drivers/mss_gpio/mss_gpio.o
 .debug_macro   0x00000000      0x862 ./drivers/mss_gpio/mss_gpio.o
 .debug_macro   0x00000000       0x26 ./drivers/mss_gpio/mss_gpio.o
 .debug_macro   0x00000000       0x3a ./drivers/mss_gpio/mss_gpio.o
 .debug_macro   0x00000000       0x22 ./drivers/mss_gpio/mss_gpio.o
 .debug_macro   0x00000000       0x44 ./drivers/mss_gpio/mss_gpio.o
 .debug_macro   0x00000000       0x58 ./drivers/mss_gpio/mss_gpio.o
 .debug_macro   0x00000000       0x22 ./drivers/mss_gpio/mss_gpio.o
 .debug_macro   0x00000000      0x1df ./drivers/mss_gpio/mss_gpio.o
 .debug_macro   0x00000000       0x34 ./drivers/mss_gpio/mss_gpio.o
 .debug_macro   0x00000000      0xc83 ./drivers/mss_gpio/mss_gpio.o
 .debug_macro   0x00000000      0x265 ./drivers/mss_gpio/mss_gpio.o
 .debug_macro   0x00000000       0x58 ./drivers/mss_gpio/mss_gpio.o
 .debug_macro   0x00000000       0x35 ./drivers/mss_gpio/mss_gpio.o
 .debug_macro   0x00000000       0x9c ./drivers/mss_gpio/mss_gpio.o
 .debug_macro   0x00000000       0x1c ./drivers/mss_gpio/mss_gpio.o
 .group         0x00000000        0x8 ./CMSIS/startup_gcc/newlib_stubs.o
 .group         0x00000000        0x8 ./CMSIS/startup_gcc/newlib_stubs.o
 .group         0x00000000        0x8 ./CMSIS/startup_gcc/newlib_stubs.o
 .group         0x00000000        0x8 ./CMSIS/startup_gcc/newlib_stubs.o
 .group         0x00000000        0x8 ./CMSIS/startup_gcc/newlib_stubs.o
 .group         0x00000000        0x8 ./CMSIS/startup_gcc/newlib_stubs.o
 .group         0x00000000        0x8 ./CMSIS/startup_gcc/newlib_stubs.o
 .group         0x00000000        0x8 ./CMSIS/startup_gcc/newlib_stubs.o
 .group         0x00000000        0x8 ./CMSIS/startup_gcc/newlib_stubs.o
 .group         0x00000000        0x8 ./CMSIS/startup_gcc/newlib_stubs.o
 .group         0x00000000        0x8 ./CMSIS/startup_gcc/newlib_stubs.o
 .group         0x00000000        0x8 ./CMSIS/startup_gcc/newlib_stubs.o
 .group         0x00000000        0x8 ./CMSIS/startup_gcc/newlib_stubs.o
 .group         0x00000000        0x8 ./CMSIS/startup_gcc/newlib_stubs.o
 .group         0x00000000        0x8 ./CMSIS/startup_gcc/newlib_stubs.o
 .group         0x00000000        0x8 ./CMSIS/startup_gcc/newlib_stubs.o
 .group         0x00000000        0x8 ./CMSIS/startup_gcc/newlib_stubs.o
 .group         0x00000000        0x8 ./CMSIS/startup_gcc/newlib_stubs.o
 .group         0x00000000        0x8 ./CMSIS/startup_gcc/newlib_stubs.o
 .group         0x00000000        0x8 ./CMSIS/startup_gcc/newlib_stubs.o
 .group         0x00000000        0x8 ./CMSIS/startup_gcc/newlib_stubs.o
 .group         0x00000000        0x8 ./CMSIS/startup_gcc/newlib_stubs.o
 .group         0x00000000        0x8 ./CMSIS/startup_gcc/newlib_stubs.o
 .group         0x00000000        0x8 ./CMSIS/startup_gcc/newlib_stubs.o
 .group         0x00000000        0x8 ./CMSIS/startup_gcc/newlib_stubs.o
 .group         0x00000000        0x8 ./CMSIS/startup_gcc/newlib_stubs.o
 .group         0x00000000        0x8 ./CMSIS/startup_gcc/newlib_stubs.o
 .group         0x00000000        0x8 ./CMSIS/startup_gcc/newlib_stubs.o
 .group         0x00000000        0x8 ./CMSIS/startup_gcc/newlib_stubs.o
 .group         0x00000000        0x8 ./CMSIS/startup_gcc/newlib_stubs.o
 .group         0x00000000        0x8 ./CMSIS/startup_gcc/newlib_stubs.o
 .text          0x00000000        0x0 ./CMSIS/startup_gcc/newlib_stubs.o
 .data          0x00000000        0x0 ./CMSIS/startup_gcc/newlib_stubs.o
 .bss           0x00000000        0x0 ./CMSIS/startup_gcc/newlib_stubs.o
 .bss.__env     0x00000000        0x4 ./CMSIS/startup_gcc/newlib_stubs.o
 .data.environ  0x00000000        0x4 ./CMSIS/startup_gcc/newlib_stubs.o
 .text._close   0x00000000       0x18 ./CMSIS/startup_gcc/newlib_stubs.o
 .text._execve  0x00000000       0x24 ./CMSIS/startup_gcc/newlib_stubs.o
 .text._fork    0x00000000       0x18 ./CMSIS/startup_gcc/newlib_stubs.o
 .text._fstat   0x00000000       0x20 ./CMSIS/startup_gcc/newlib_stubs.o
 .text._getpid  0x00000000       0x10 ./CMSIS/startup_gcc/newlib_stubs.o
 .text._isatty  0x00000000       0x18 ./CMSIS/startup_gcc/newlib_stubs.o
 .text._kill    0x00000000       0x20 ./CMSIS/startup_gcc/newlib_stubs.o
 .text._link    0x00000000       0x20 ./CMSIS/startup_gcc/newlib_stubs.o
 .text._lseek   0x00000000       0x1c ./CMSIS/startup_gcc/newlib_stubs.o
 .text._open    0x00000000       0x1c ./CMSIS/startup_gcc/newlib_stubs.o
 .text._read    0x00000000       0x1c ./CMSIS/startup_gcc/newlib_stubs.o
 .text._stat    0x00000000       0x20 ./CMSIS/startup_gcc/newlib_stubs.o
 .text._times   0x00000000       0x18 ./CMSIS/startup_gcc/newlib_stubs.o
 .text._unlink  0x00000000       0x20 ./CMSIS/startup_gcc/newlib_stubs.o
 .text._wait    0x00000000       0x20 ./CMSIS/startup_gcc/newlib_stubs.o
 .debug_macro   0x00000000      0x862 ./CMSIS/startup_gcc/newlib_stubs.o
 .debug_macro   0x00000000       0x58 ./CMSIS/startup_gcc/newlib_stubs.o
 .debug_macro   0x00000000       0x22 ./CMSIS/startup_gcc/newlib_stubs.o
 .debug_macro   0x00000000       0x35 ./CMSIS/startup_gcc/newlib_stubs.o
 .debug_macro   0x00000000       0x9c ./CMSIS/startup_gcc/newlib_stubs.o
 .debug_macro   0x00000000       0x4a ./CMSIS/startup_gcc/newlib_stubs.o
 .debug_macro   0x00000000       0x52 ./CMSIS/startup_gcc/newlib_stubs.o
 .debug_macro   0x00000000       0x16 ./CMSIS/startup_gcc/newlib_stubs.o
 .debug_macro   0x00000000       0x43 ./CMSIS/startup_gcc/newlib_stubs.o
 .debug_macro   0x00000000      0x180 ./CMSIS/startup_gcc/newlib_stubs.o
 .debug_macro   0x00000000      0x27a ./CMSIS/startup_gcc/newlib_stubs.o
 .debug_macro   0x00000000       0x22 ./CMSIS/startup_gcc/newlib_stubs.o
 .debug_macro   0x00000000       0x35 ./CMSIS/startup_gcc/newlib_stubs.o
 .text          0x00000000        0x0 ./CMSIS/startup_gcc/startup_m2sxxx.o
 .data          0x00000000        0x0 ./CMSIS/startup_gcc/startup_m2sxxx.o
 .bss           0x00000000        0x0 ./CMSIS/startup_gcc/startup_m2sxxx.o
 .group         0x00000000        0x8 ./CMSIS/system_m2sxxx.o
 .group         0x00000000        0x8 ./CMSIS/system_m2sxxx.o
 .group         0x00000000        0x8 ./CMSIS/system_m2sxxx.o
 .group         0x00000000        0x8 ./CMSIS/system_m2sxxx.o
 .group         0x00000000        0x8 ./CMSIS/system_m2sxxx.o
 .group         0x00000000        0x8 ./CMSIS/system_m2sxxx.o
 .group         0x00000000        0x8 ./CMSIS/system_m2sxxx.o
 .group         0x00000000        0x8 ./CMSIS/system_m2sxxx.o
 .group         0x00000000        0x8 ./CMSIS/system_m2sxxx.o
 .group         0x00000000        0x8 ./CMSIS/system_m2sxxx.o
 .group         0x00000000        0x8 ./CMSIS/system_m2sxxx.o
 .group         0x00000000        0x8 ./CMSIS/system_m2sxxx.o
 .group         0x00000000        0x8 ./CMSIS/system_m2sxxx.o
 .text          0x00000000        0x0 ./CMSIS/system_m2sxxx.o
 .data          0x00000000        0x0 ./CMSIS/system_m2sxxx.o
 .bss           0x00000000        0x0 ./CMSIS/system_m2sxxx.o
 .debug_macro   0x00000000      0x862 ./CMSIS/system_m2sxxx.o
 .debug_macro   0x00000000       0x26 ./CMSIS/system_m2sxxx.o
 .debug_macro   0x00000000       0x3a ./CMSIS/system_m2sxxx.o
 .debug_macro   0x00000000       0x22 ./CMSIS/system_m2sxxx.o
 .debug_macro   0x00000000       0x44 ./CMSIS/system_m2sxxx.o
 .debug_macro   0x00000000       0x58 ./CMSIS/system_m2sxxx.o
 .debug_macro   0x00000000       0x22 ./CMSIS/system_m2sxxx.o
 .debug_macro   0x00000000      0x1df ./CMSIS/system_m2sxxx.o
 .debug_macro   0x00000000       0x34 ./CMSIS/system_m2sxxx.o
 .debug_macro   0x00000000      0xc83 ./CMSIS/system_m2sxxx.o
 .debug_macro   0x00000000      0x265 ./CMSIS/system_m2sxxx.o
 .debug_macro   0x00000000       0x3a ./CMSIS/system_m2sxxx.o
 .debug_macro   0x00000000       0x34 ./CMSIS/system_m2sxxx.o
 .group         0x00000000        0x8 ./main.o
 .group         0x00000000        0x8 ./main.o
 .group         0x00000000        0x8 ./main.o
 .group         0x00000000        0x8 ./main.o
 .group         0x00000000        0x8 ./main.o
 .group         0x00000000        0x8 ./main.o
 .group         0x00000000        0x8 ./main.o
 .group         0x00000000        0x8 ./main.o
 .group         0x00000000        0x8 ./main.o
 .group         0x00000000        0x8 ./main.o
 .group         0x00000000        0x8 ./main.o
 .group         0x00000000        0x8 ./main.o
 .group         0x00000000        0x8 ./main.o
 .group         0x00000000        0x8 ./main.o
 .group         0x00000000        0x8 ./main.o
 .group         0x00000000        0x8 ./main.o
 .group         0x00000000        0x8 ./main.o
 .group         0x00000000        0x8 ./main.o
 .group         0x00000000        0x8 ./main.o
 .group         0x00000000        0x8 ./main.o
 .group         0x00000000        0x8 ./main.o
 .group         0x00000000        0x8 ./main.o
 .group         0x00000000        0x8 ./main.o
 .group         0x00000000        0x8 ./main.o
 .group         0x00000000        0x8 ./main.o
 .group         0x00000000        0x8 ./main.o
 .group         0x00000000        0x8 ./main.o
 .group         0x00000000        0x8 ./main.o
 .group         0x00000000        0x8 ./main.o
 .group         0x00000000        0x8 ./main.o
 .group         0x00000000        0x8 ./main.o
 .group         0x00000000        0x8 ./main.o
 .group         0x00000000        0x8 ./main.o
 .group         0x00000000        0x8 ./main.o
 .group         0x00000000        0x8 ./main.o
 .text          0x00000000        0x0 ./main.o
 .data          0x00000000        0x0 ./main.o
 .bss           0x00000000        0x0 ./main.o
 .rodata.gp_my_uart
                0x00000000        0x4 ./main.o
 .text.fill_uart_decimal
                0x00000000       0x70 ./main.o
 .text.FPGA_stop_counting
                0x00000000       0x20 ./main.o
 .debug_macro   0x00000000      0x862 ./main.o
 .debug_macro   0x00000000       0x26 ./main.o
 .debug_macro   0x00000000       0x3a ./main.o
 .debug_macro   0x00000000       0x22 ./main.o
 .debug_macro   0x00000000       0x44 ./main.o
 .debug_macro   0x00000000       0x58 ./main.o
 .debug_macro   0x00000000       0x22 ./main.o
 .debug_macro   0x00000000      0x1df ./main.o
 .debug_macro   0x00000000       0x34 ./main.o
 .debug_macro   0x00000000      0xc83 ./main.o
 .debug_macro   0x00000000      0x265 ./main.o
 .debug_macro   0x00000000      0x11c ./main.o
 .debug_macro   0x00000000      0x16d ./main.o
 .debug_macro   0x00000000      0x177 ./main.o
 .debug_macro   0x00000000       0x58 ./main.o
 .debug_macro   0x00000000       0x35 ./main.o
 .debug_macro   0x00000000       0x9c ./main.o
 .debug_macro   0x00000000       0x35 ./main.o
 .debug_macro   0x00000000      0x27a ./main.o
 .debug_macro   0x00000000       0x52 ./main.o
 .debug_macro   0x00000000       0x16 ./main.o
 .debug_macro   0x00000000       0x43 ./main.o
 .debug_macro   0x00000000      0x180 ./main.o
 .debug_macro   0x00000000       0x10 ./main.o
 .debug_macro   0x00000000       0x22 ./main.o
 .debug_macro   0x00000000       0xbe ./main.o
 .debug_macro   0x00000000       0x16 ./main.o
 .debug_macro   0x00000000       0x16 ./main.o
 .debug_macro   0x00000000       0x29 ./main.o
 .data          0x00000000        0x0 c:/microsemi/softconsole_v4.0/arm-none-eabi-gcc/bin/../lib/gcc/arm-none-eabi/4.9.3/armv7-m\libgcc.a(_arm_addsubdf3.o)
 .bss           0x00000000        0x0 c:/microsemi/softconsole_v4.0/arm-none-eabi-gcc/bin/../lib/gcc/arm-none-eabi/4.9.3/armv7-m\libgcc.a(_arm_addsubdf3.o)
 .data          0x00000000        0x0 c:/microsemi/softconsole_v4.0/arm-none-eabi-gcc/bin/../lib/gcc/arm-none-eabi/4.9.3/armv7-m\libgcc.a(_arm_muldivdf3.o)
 .bss           0x00000000        0x0 c:/microsemi/softconsole_v4.0/arm-none-eabi-gcc/bin/../lib/gcc/arm-none-eabi/4.9.3/armv7-m\libgcc.a(_arm_muldivdf3.o)
 .data          0x00000000        0x0 c:/microsemi/softconsole_v4.0/arm-none-eabi-gcc/bin/../lib/gcc/arm-none-eabi/4.9.3/armv7-m\libgcc.a(_arm_fixdfsi.o)
 .bss           0x00000000        0x0 c:/microsemi/softconsole_v4.0/arm-none-eabi-gcc/bin/../lib/gcc/arm-none-eabi/4.9.3/armv7-m\libgcc.a(_arm_fixdfsi.o)
 .data          0x00000000        0x0 c:/microsemi/softconsole_v4.0/arm-none-eabi-gcc/bin/../lib/gcc/arm-none-eabi/4.9.3/armv7-m\libgcc.a(_arm_truncdfsf2.o)
 .bss           0x00000000        0x0 c:/microsemi/softconsole_v4.0/arm-none-eabi-gcc/bin/../lib/gcc/arm-none-eabi/4.9.3/armv7-m\libgcc.a(_arm_truncdfsf2.o)
 .text          0x00000000        0x0 c:/microsemi/softconsole_v4.0/arm-none-eabi-gcc/bin/../lib/gcc/arm-none-eabi/4.9.3/../../../../arm-none-eabi/lib/armv7-m\libg.a(lib_a-errno.o)
 .data          0x00000000        0x0 c:/microsemi/softconsole_v4.0/arm-none-eabi-gcc/bin/../lib/gcc/arm-none-eabi/4.9.3/../../../../arm-none-eabi/lib/armv7-m\libg.a(lib_a-errno.o)
 .bss           0x00000000        0x0 c:/microsemi/softconsole_v4.0/arm-none-eabi-gcc/bin/../lib/gcc/arm-none-eabi/4.9.3/../../../../arm-none-eabi/lib/armv7-m\libg.a(lib_a-errno.o)
 .text.__errno  0x00000000        0xc c:/microsemi/softconsole_v4.0/arm-none-eabi-gcc/bin/../lib/gcc/arm-none-eabi/4.9.3/../../../../arm-none-eabi/lib/armv7-m\libg.a(lib_a-errno.o)
 .text          0x00000000        0x0 c:/microsemi/softconsole_v4.0/arm-none-eabi-gcc/bin/../lib/gcc/arm-none-eabi/4.9.3/../../../../arm-none-eabi/lib/armv7-m\libg.a(lib_a-exit.o)
 .data          0x00000000        0x0 c:/microsemi/softconsole_v4.0/arm-none-eabi-gcc/bin/../lib/gcc/arm-none-eabi/4.9.3/../../../../arm-none-eabi/lib/armv7-m\libg.a(lib_a-exit.o)
 .bss           0x00000000        0x0 c:/microsemi/softconsole_v4.0/arm-none-eabi-gcc/bin/../lib/gcc/arm-none-eabi/4.9.3/../../../../arm-none-eabi/lib/armv7-m\libg.a(lib_a-exit.o)
 .text.exit     0x00000000       0x20 c:/microsemi/softconsole_v4.0/arm-none-eabi-gcc/bin/../lib/gcc/arm-none-eabi/4.9.3/../../../../arm-none-eabi/lib/armv7-m\libg.a(lib_a-exit.o)
 .text          0x00000000        0x0 c:/microsemi/softconsole_v4.0/arm-none-eabi-gcc/bin/../lib/gcc/arm-none-eabi/4.9.3/../../../../arm-none-eabi/lib/armv7-m\libg.a(lib_a-impure.o)
 .data          0x00000000        0x0 c:/microsemi/softconsole_v4.0/arm-none-eabi-gcc/bin/../lib/gcc/arm-none-eabi/4.9.3/../../../../arm-none-eabi/lib/armv7-m\libg.a(lib_a-impure.o)
 .bss           0x00000000        0x0 c:/microsemi/softconsole_v4.0/arm-none-eabi-gcc/bin/../lib/gcc/arm-none-eabi/4.9.3/../../../../arm-none-eabi/lib/armv7-m\libg.a(lib_a-impure.o)
 .text          0x00000000        0x0 c:/microsemi/softconsole_v4.0/arm-none-eabi-gcc/bin/../lib/gcc/arm-none-eabi/4.9.3/../../../../arm-none-eabi/lib/armv7-m\libg.a(lib_a-init.o)
 .data          0x00000000        0x0 c:/microsemi/softconsole_v4.0/arm-none-eabi-gcc/bin/../lib/gcc/arm-none-eabi/4.9.3/../../../../arm-none-eabi/lib/armv7-m\libg.a(lib_a-init.o)
 .bss           0x00000000        0x0 c:/microsemi/softconsole_v4.0/arm-none-eabi-gcc/bin/../lib/gcc/arm-none-eabi/4.9.3/../../../../arm-none-eabi/lib/armv7-m\libg.a(lib_a-init.o)
 .data          0x00000000        0x0 c:/microsemi/softconsole_v4.0/arm-none-eabi-gcc/bin/../lib/gcc/arm-none-eabi/4.9.3/../../../../arm-none-eabi/lib/armv7-m\libg.a(lib_a-memcpy.o)
 .bss           0x00000000        0x0 c:/microsemi/softconsole_v4.0/arm-none-eabi-gcc/bin/../lib/gcc/arm-none-eabi/4.9.3/../../../../arm-none-eabi/lib/armv7-m\libg.a(lib_a-memcpy.o)
 .text          0x00000000        0x0 c:/microsemi/softconsole_v4.0/arm-none-eabi-gcc/bin/../lib/gcc/arm-none-eabi/4.9.3/../../../../arm-none-eabi/lib/armv7-m\libg.a(lib_a-memset.o)
 .data          0x00000000        0x0 c:/microsemi/softconsole_v4.0/arm-none-eabi-gcc/bin/../lib/gcc/arm-none-eabi/4.9.3/../../../../arm-none-eabi/lib/armv7-m\libg.a(lib_a-memset.o)
 .bss           0x00000000        0x0 c:/microsemi/softconsole_v4.0/arm-none-eabi-gcc/bin/../lib/gcc/arm-none-eabi/4.9.3/../../../../arm-none-eabi/lib/armv7-m\libg.a(lib_a-memset.o)
 .text          0x00000000        0x0 c:/microsemi/softconsole_v4.0/arm-none-eabi-gcc/bin/../lib/gcc/arm-none-eabi/4.9.3/../../../../arm-none-eabi/lib/armv7-m\libg.a(lib_a-sprintf.o)
 .data          0x00000000        0x0 c:/microsemi/softconsole_v4.0/arm-none-eabi-gcc/bin/../lib/gcc/arm-none-eabi/4.9.3/../../../../arm-none-eabi/lib/armv7-m\libg.a(lib_a-sprintf.o)
 .bss           0x00000000        0x0 c:/microsemi/softconsole_v4.0/arm-none-eabi-gcc/bin/../lib/gcc/arm-none-eabi/4.9.3/../../../../arm-none-eabi/lib/armv7-m\libg.a(lib_a-sprintf.o)
 .text._sprintf_r
                0x00000000       0x44 c:/microsemi/softconsole_v4.0/arm-none-eabi-gcc/bin/../lib/gcc/arm-none-eabi/4.9.3/../../../../arm-none-eabi/lib/armv7-m\libg.a(lib_a-sprintf.o)
 .text          0x00000000        0x0 c:/microsemi/softconsole_v4.0/arm-none-eabi-gcc/bin/../lib/gcc/arm-none-eabi/4.9.3/../../../../arm-none-eabi/lib/armv7-m\libg.a(lib_a-strlen.o)
 .data          0x00000000        0x0 c:/microsemi/softconsole_v4.0/arm-none-eabi-gcc/bin/../lib/gcc/arm-none-eabi/4.9.3/../../../../arm-none-eabi/lib/armv7-m\libg.a(lib_a-strlen.o)
 .bss           0x00000000        0x0 c:/microsemi/softconsole_v4.0/arm-none-eabi-gcc/bin/../lib/gcc/arm-none-eabi/4.9.3/../../../../arm-none-eabi/lib/armv7-m\libg.a(lib_a-strlen.o)
 .text          0x00000000        0x0 c:/microsemi/softconsole_v4.0/arm-none-eabi-gcc/bin/../lib/gcc/arm-none-eabi/4.9.3/../../../../arm-none-eabi/lib/armv7-m\libg.a(lib_a-svfprintf.o)
 .data          0x00000000        0x0 c:/microsemi/softconsole_v4.0/arm-none-eabi-gcc/bin/../lib/gcc/arm-none-eabi/4.9.3/../../../../arm-none-eabi/lib/armv7-m\libg.a(lib_a-svfprintf.o)
 .bss           0x00000000        0x0 c:/microsemi/softconsole_v4.0/arm-none-eabi-gcc/bin/../lib/gcc/arm-none-eabi/4.9.3/../../../../arm-none-eabi/lib/armv7-m\libg.a(lib_a-svfprintf.o)
 .text          0x00000000        0x0 c:/microsemi/softconsole_v4.0/arm-none-eabi-gcc/bin/../lib/gcc/arm-none-eabi/4.9.3/../../../../arm-none-eabi/lib/armv7-m\libg.a(lib_a-__call_atexit.o)
 .data          0x00000000        0x0 c:/microsemi/softconsole_v4.0/arm-none-eabi-gcc/bin/../lib/gcc/arm-none-eabi/4.9.3/../../../../arm-none-eabi/lib/armv7-m\libg.a(lib_a-__call_atexit.o)
 .bss           0x00000000        0x0 c:/microsemi/softconsole_v4.0/arm-none-eabi-gcc/bin/../lib/gcc/arm-none-eabi/4.9.3/../../../../arm-none-eabi/lib/armv7-m\libg.a(lib_a-__call_atexit.o)
 .text.__call_exitprocs
                0x00000000       0xd4 c:/microsemi/softconsole_v4.0/arm-none-eabi-gcc/bin/../lib/gcc/arm-none-eabi/4.9.3/../../../../arm-none-eabi/lib/armv7-m\libg.a(lib_a-__call_atexit.o)
 .text          0x00000000        0x0 c:/microsemi/softconsole_v4.0/arm-none-eabi-gcc/bin/../lib/gcc/arm-none-eabi/4.9.3/../../../../arm-none-eabi/lib/armv7-m\libg.a(lib_a-atexit.o)
 .data          0x00000000        0x0 c:/microsemi/softconsole_v4.0/arm-none-eabi-gcc/bin/../lib/gcc/arm-none-eabi/4.9.3/../../../../arm-none-eabi/lib/armv7-m\libg.a(lib_a-atexit.o)
 .bss           0x00000000        0x0 c:/microsemi/softconsole_v4.0/arm-none-eabi-gcc/bin/../lib/gcc/arm-none-eabi/4.9.3/../../../../arm-none-eabi/lib/armv7-m\libg.a(lib_a-atexit.o)
 .text          0x00000000        0x0 c:/microsemi/softconsole_v4.0/arm-none-eabi-gcc/bin/../lib/gcc/arm-none-eabi/4.9.3/../../../../arm-none-eabi/lib/armv7-m\libg.a(lib_a-dtoa.o)
 .data          0x00000000        0x0 c:/microsemi/softconsole_v4.0/arm-none-eabi-gcc/bin/../lib/gcc/arm-none-eabi/4.9.3/../../../../arm-none-eabi/lib/armv7-m\libg.a(lib_a-dtoa.o)
 .bss           0x00000000        0x0 c:/microsemi/softconsole_v4.0/arm-none-eabi-gcc/bin/../lib/gcc/arm-none-eabi/4.9.3/../../../../arm-none-eabi/lib/armv7-m\libg.a(lib_a-dtoa.o)
 .text          0x00000000        0x0 c:/microsemi/softconsole_v4.0/arm-none-eabi-gcc/bin/../lib/gcc/arm-none-eabi/4.9.3/../../../../arm-none-eabi/lib/armv7-m\libg.a(lib_a-fini.o)
 .data          0x00000000        0x0 c:/microsemi/softconsole_v4.0/arm-none-eabi-gcc/bin/../lib/gcc/arm-none-eabi/4.9.3/../../../../arm-none-eabi/lib/armv7-m\libg.a(lib_a-fini.o)
 .bss           0x00000000        0x0 c:/microsemi/softconsole_v4.0/arm-none-eabi-gcc/bin/../lib/gcc/arm-none-eabi/4.9.3/../../../../arm-none-eabi/lib/armv7-m\libg.a(lib_a-fini.o)
 .text          0x00000000        0x0 c:/microsemi/softconsole_v4.0/arm-none-eabi-gcc/bin/../lib/gcc/arm-none-eabi/4.9.3/../../../../arm-none-eabi/lib/armv7-m\libg.a(lib_a-locale.o)
 .data          0x00000000        0x0 c:/microsemi/softconsole_v4.0/arm-none-eabi-gcc/bin/../lib/gcc/arm-none-eabi/4.9.3/../../../../arm-none-eabi/lib/armv7-m\libg.a(lib_a-locale.o)
 .bss           0x00000000        0x0 c:/microsemi/softconsole_v4.0/arm-none-eabi-gcc/bin/../lib/gcc/arm-none-eabi/4.9.3/../../../../arm-none-eabi/lib/armv7-m\libg.a(lib_a-locale.o)
 .text._setlocale_r
                0x00000000       0x44 c:/microsemi/softconsole_v4.0/arm-none-eabi-gcc/bin/../lib/gcc/arm-none-eabi/4.9.3/../../../../arm-none-eabi/lib/armv7-m\libg.a(lib_a-locale.o)
 .text.__locale_charset
                0x00000000        0x8 c:/microsemi/softconsole_v4.0/arm-none-eabi-gcc/bin/../lib/gcc/arm-none-eabi/4.9.3/../../../../arm-none-eabi/lib/armv7-m\libg.a(lib_a-locale.o)
 .text.__locale_mb_cur_max
                0x00000000        0xc c:/microsemi/softconsole_v4.0/arm-none-eabi-gcc/bin/../lib/gcc/arm-none-eabi/4.9.3/../../../../arm-none-eabi/lib/armv7-m\libg.a(lib_a-locale.o)
 .text.__locale_msgcharset
                0x00000000        0x8 c:/microsemi/softconsole_v4.0/arm-none-eabi-gcc/bin/../lib/gcc/arm-none-eabi/4.9.3/../../../../arm-none-eabi/lib/armv7-m\libg.a(lib_a-locale.o)
 .text.__locale_cjk_lang
                0x00000000        0x4 c:/microsemi/softconsole_v4.0/arm-none-eabi-gcc/bin/../lib/gcc/arm-none-eabi/4.9.3/../../../../arm-none-eabi/lib/armv7-m\libg.a(lib_a-locale.o)
 .text.setlocale
                0x00000000       0x10 c:/microsemi/softconsole_v4.0/arm-none-eabi-gcc/bin/../lib/gcc/arm-none-eabi/4.9.3/../../../../arm-none-eabi/lib/armv7-m\libg.a(lib_a-locale.o)
 .text.localeconv
                0x00000000        0x8 c:/microsemi/softconsole_v4.0/arm-none-eabi-gcc/bin/../lib/gcc/arm-none-eabi/4.9.3/../../../../arm-none-eabi/lib/armv7-m\libg.a(lib_a-locale.o)
 .data.lc_message_charset
                0x00000000       0x20 c:/microsemi/softconsole_v4.0/arm-none-eabi-gcc/bin/../lib/gcc/arm-none-eabi/4.9.3/../../../../arm-none-eabi/lib/armv7-m\libg.a(lib_a-locale.o)
 .bss._PathLocale
                0x00000000        0x4 c:/microsemi/softconsole_v4.0/arm-none-eabi-gcc/bin/../lib/gcc/arm-none-eabi/4.9.3/../../../../arm-none-eabi/lib/armv7-m\libg.a(lib_a-locale.o)
 .bss.__nlocale_changed
                0x00000000        0x4 c:/microsemi/softconsole_v4.0/arm-none-eabi-gcc/bin/../lib/gcc/arm-none-eabi/4.9.3/../../../../arm-none-eabi/lib/armv7-m\libg.a(lib_a-locale.o)
 .bss.__mlocale_changed
                0x00000000        0x4 c:/microsemi/softconsole_v4.0/arm-none-eabi-gcc/bin/../lib/gcc/arm-none-eabi/4.9.3/../../../../arm-none-eabi/lib/armv7-m\libg.a(lib_a-locale.o)
 .data.lc_ctype_charset
                0x00000000       0x20 c:/microsemi/softconsole_v4.0/arm-none-eabi-gcc/bin/../lib/gcc/arm-none-eabi/4.9.3/../../../../arm-none-eabi/lib/armv7-m\libg.a(lib_a-locale.o)
 .data.__mb_cur_max
                0x00000000        0x4 c:/microsemi/softconsole_v4.0/arm-none-eabi-gcc/bin/../lib/gcc/arm-none-eabi/4.9.3/../../../../arm-none-eabi/lib/armv7-m\libg.a(lib_a-locale.o)
 .text          0x00000000        0x0 c:/microsemi/softconsole_v4.0/arm-none-eabi-gcc/bin/../lib/gcc/arm-none-eabi/4.9.3/../../../../arm-none-eabi/lib/armv7-m\libg.a(lib_a-mallocr.o)
 .data          0x00000000        0x0 c:/microsemi/softconsole_v4.0/arm-none-eabi-gcc/bin/../lib/gcc/arm-none-eabi/4.9.3/../../../../arm-none-eabi/lib/armv7-m\libg.a(lib_a-mallocr.o)
 .bss           0x00000000        0x0 c:/microsemi/softconsole_v4.0/arm-none-eabi-gcc/bin/../lib/gcc/arm-none-eabi/4.9.3/../../../../arm-none-eabi/lib/armv7-m\libg.a(lib_a-mallocr.o)
 .text          0x00000000        0x0 c:/microsemi/softconsole_v4.0/arm-none-eabi-gcc/bin/../lib/gcc/arm-none-eabi/4.9.3/../../../../arm-none-eabi/lib/armv7-m\libg.a(lib_a-memchr.o)
 .data          0x00000000        0x0 c:/microsemi/softconsole_v4.0/arm-none-eabi-gcc/bin/../lib/gcc/arm-none-eabi/4.9.3/../../../../arm-none-eabi/lib/armv7-m\libg.a(lib_a-memchr.o)
 .bss           0x00000000        0x0 c:/microsemi/softconsole_v4.0/arm-none-eabi-gcc/bin/../lib/gcc/arm-none-eabi/4.9.3/../../../../arm-none-eabi/lib/armv7-m\libg.a(lib_a-memchr.o)
 .text          0x00000000        0x0 c:/microsemi/softconsole_v4.0/arm-none-eabi-gcc/bin/../lib/gcc/arm-none-eabi/4.9.3/../../../../arm-none-eabi/lib/armv7-m\libg.a(lib_a-mlock.o)
 .data          0x00000000        0x0 c:/microsemi/softconsole_v4.0/arm-none-eabi-gcc/bin/../lib/gcc/arm-none-eabi/4.9.3/../../../../arm-none-eabi/lib/armv7-m\libg.a(lib_a-mlock.o)
 .bss           0x00000000        0x0 c:/microsemi/softconsole_v4.0/arm-none-eabi-gcc/bin/../lib/gcc/arm-none-eabi/4.9.3/../../../../arm-none-eabi/lib/armv7-m\libg.a(lib_a-mlock.o)
 .text          0x00000000        0x0 c:/microsemi/softconsole_v4.0/arm-none-eabi-gcc/bin/../lib/gcc/arm-none-eabi/4.9.3/../../../../arm-none-eabi/lib/armv7-m\libg.a(lib_a-mprec.o)
 .data          0x00000000        0x0 c:/microsemi/softconsole_v4.0/arm-none-eabi-gcc/bin/../lib/gcc/arm-none-eabi/4.9.3/../../../../arm-none-eabi/lib/armv7-m\libg.a(lib_a-mprec.o)
 .bss           0x00000000        0x0 c:/microsemi/softconsole_v4.0/arm-none-eabi-gcc/bin/../lib/gcc/arm-none-eabi/4.9.3/../../../../arm-none-eabi/lib/armv7-m\libg.a(lib_a-mprec.o)
 .text.__s2b    0x00000000       0x98 c:/microsemi/softconsole_v4.0/arm-none-eabi-gcc/bin/../lib/gcc/arm-none-eabi/4.9.3/../../../../arm-none-eabi/lib/armv7-m\libg.a(lib_a-mprec.o)
 .text.__ulp    0x00000000       0x44 c:/microsemi/softconsole_v4.0/arm-none-eabi-gcc/bin/../lib/gcc/arm-none-eabi/4.9.3/../../../../arm-none-eabi/lib/armv7-m\libg.a(lib_a-mprec.o)
 .text.__b2d    0x00000000       0xd0 c:/microsemi/softconsole_v4.0/arm-none-eabi-gcc/bin/../lib/gcc/arm-none-eabi/4.9.3/../../../../arm-none-eabi/lib/armv7-m\libg.a(lib_a-mprec.o)
 .text.__ratio  0x00000000       0x58 c:/microsemi/softconsole_v4.0/arm-none-eabi-gcc/bin/../lib/gcc/arm-none-eabi/4.9.3/../../../../arm-none-eabi/lib/armv7-m\libg.a(lib_a-mprec.o)
 .text._mprec_log10
                0x00000000       0x34 c:/microsemi/softconsole_v4.0/arm-none-eabi-gcc/bin/../lib/gcc/arm-none-eabi/4.9.3/../../../../arm-none-eabi/lib/armv7-m\libg.a(lib_a-mprec.o)
 .text.__copybits
                0x00000000       0x48 c:/microsemi/softconsole_v4.0/arm-none-eabi-gcc/bin/../lib/gcc/arm-none-eabi/4.9.3/../../../../arm-none-eabi/lib/armv7-m\libg.a(lib_a-mprec.o)
 .text.__any_on
                0x00000000       0x5c c:/microsemi/softconsole_v4.0/arm-none-eabi-gcc/bin/../lib/gcc/arm-none-eabi/4.9.3/../../../../arm-none-eabi/lib/armv7-m\libg.a(lib_a-mprec.o)
 .rodata.__mprec_tinytens
                0x00000000       0x28 c:/microsemi/softconsole_v4.0/arm-none-eabi-gcc/bin/../lib/gcc/arm-none-eabi/4.9.3/../../../../arm-none-eabi/lib/armv7-m\libg.a(lib_a-mprec.o)
 .text          0x00000000        0x0 c:/microsemi/softconsole_v4.0/arm-none-eabi-gcc/bin/../lib/gcc/arm-none-eabi/4.9.3/../../../../arm-none-eabi/lib/armv7-m\libg.a(lib_a-s_fpclassify.o)
 .data          0x00000000        0x0 c:/microsemi/softconsole_v4.0/arm-none-eabi-gcc/bin/../lib/gcc/arm-none-eabi/4.9.3/../../../../arm-none-eabi/lib/armv7-m\libg.a(lib_a-s_fpclassify.o)
 .bss           0x00000000        0x0 c:/microsemi/softconsole_v4.0/arm-none-eabi-gcc/bin/../lib/gcc/arm-none-eabi/4.9.3/../../../../arm-none-eabi/lib/armv7-m\libg.a(lib_a-s_fpclassify.o)
 .text          0x00000000        0x0 c:/microsemi/softconsole_v4.0/arm-none-eabi-gcc/bin/../lib/gcc/arm-none-eabi/4.9.3/../../../../arm-none-eabi/lib/armv7-m\libg.a(lib_a-sbrkr.o)
 .data          0x00000000        0x0 c:/microsemi/softconsole_v4.0/arm-none-eabi-gcc/bin/../lib/gcc/arm-none-eabi/4.9.3/../../../../arm-none-eabi/lib/armv7-m\libg.a(lib_a-sbrkr.o)
 .bss           0x00000000        0x0 c:/microsemi/softconsole_v4.0/arm-none-eabi-gcc/bin/../lib/gcc/arm-none-eabi/4.9.3/../../../../arm-none-eabi/lib/armv7-m\libg.a(lib_a-sbrkr.o)
 .text          0x00000000      0x1bc c:/microsemi/softconsole_v4.0/arm-none-eabi-gcc/bin/../lib/gcc/arm-none-eabi/4.9.3/../../../../arm-none-eabi/lib/armv7-m\libg.a(lib_a-strcmp.o)
 .data          0x00000000        0x0 c:/microsemi/softconsole_v4.0/arm-none-eabi-gcc/bin/../lib/gcc/arm-none-eabi/4.9.3/../../../../arm-none-eabi/lib/armv7-m\libg.a(lib_a-strcmp.o)
 .bss           0x00000000        0x0 c:/microsemi/softconsole_v4.0/arm-none-eabi-gcc/bin/../lib/gcc/arm-none-eabi/4.9.3/../../../../arm-none-eabi/lib/armv7-m\libg.a(lib_a-strcmp.o)
 .eh_frame      0x00000000       0x38 c:/microsemi/softconsole_v4.0/arm-none-eabi-gcc/bin/../lib/gcc/arm-none-eabi/4.9.3/../../../../arm-none-eabi/lib/armv7-m\libg.a(lib_a-strcmp.o)
 .text          0x00000000        0x0 c:/microsemi/softconsole_v4.0/arm-none-eabi-gcc/bin/../lib/gcc/arm-none-eabi/4.9.3/../../../../arm-none-eabi/lib/armv7-m\libg.a(lib_a-svfiprintf.o)
 .data          0x00000000        0x0 c:/microsemi/softconsole_v4.0/arm-none-eabi-gcc/bin/../lib/gcc/arm-none-eabi/4.9.3/../../../../arm-none-eabi/lib/armv7-m\libg.a(lib_a-svfiprintf.o)
 .bss           0x00000000        0x0 c:/microsemi/softconsole_v4.0/arm-none-eabi-gcc/bin/../lib/gcc/arm-none-eabi/4.9.3/../../../../arm-none-eabi/lib/armv7-m\libg.a(lib_a-svfiprintf.o)
 .text._svfiprintf_r
                0x00000000      0xaa8 c:/microsemi/softconsole_v4.0/arm-none-eabi-gcc/bin/../lib/gcc/arm-none-eabi/4.9.3/../../../../arm-none-eabi/lib/armv7-m\libg.a(lib_a-svfiprintf.o)
 .rodata.blanks.6854
                0x00000000       0x10 c:/microsemi/softconsole_v4.0/arm-none-eabi-gcc/bin/../lib/gcc/arm-none-eabi/4.9.3/../../../../arm-none-eabi/lib/armv7-m\libg.a(lib_a-svfiprintf.o)
 .rodata.str1.4
                0x00000000       0x2f c:/microsemi/softconsole_v4.0/arm-none-eabi-gcc/bin/../lib/gcc/arm-none-eabi/4.9.3/../../../../arm-none-eabi/lib/armv7-m\libg.a(lib_a-svfiprintf.o)
 .rodata.zeroes.6855
                0x00000000       0x10 c:/microsemi/softconsole_v4.0/arm-none-eabi-gcc/bin/../lib/gcc/arm-none-eabi/4.9.3/../../../../arm-none-eabi/lib/armv7-m\libg.a(lib_a-svfiprintf.o)
 .text          0x00000000        0x0 c:/microsemi/softconsole_v4.0/arm-none-eabi-gcc/bin/../lib/gcc/arm-none-eabi/4.9.3/../../../../arm-none-eabi/lib/armv7-m\libg.a(lib_a-__atexit.o)
 .data          0x00000000        0x0 c:/microsemi/softconsole_v4.0/arm-none-eabi-gcc/bin/../lib/gcc/arm-none-eabi/4.9.3/../../../../arm-none-eabi/lib/armv7-m\libg.a(lib_a-__atexit.o)
 .bss           0x00000000        0x0 c:/microsemi/softconsole_v4.0/arm-none-eabi-gcc/bin/../lib/gcc/arm-none-eabi/4.9.3/../../../../arm-none-eabi/lib/armv7-m\libg.a(lib_a-__atexit.o)
 .text          0x00000000        0x0 c:/microsemi/softconsole_v4.0/arm-none-eabi-gcc/bin/../lib/gcc/arm-none-eabi/4.9.3/../../../../arm-none-eabi/lib/armv7-m\libg.a(lib_a-callocr.o)
 .data          0x00000000        0x0 c:/microsemi/softconsole_v4.0/arm-none-eabi-gcc/bin/../lib/gcc/arm-none-eabi/4.9.3/../../../../arm-none-eabi/lib/armv7-m\libg.a(lib_a-callocr.o)
 .bss           0x00000000        0x0 c:/microsemi/softconsole_v4.0/arm-none-eabi-gcc/bin/../lib/gcc/arm-none-eabi/4.9.3/../../../../arm-none-eabi/lib/armv7-m\libg.a(lib_a-callocr.o)
 .text          0x00000000        0x0 c:/microsemi/softconsole_v4.0/arm-none-eabi-gcc/bin/../lib/gcc/arm-none-eabi/4.9.3/../../../../arm-none-eabi/lib/armv7-m\libg.a(lib_a-freer.o)
 .data          0x00000000        0x0 c:/microsemi/softconsole_v4.0/arm-none-eabi-gcc/bin/../lib/gcc/arm-none-eabi/4.9.3/../../../../arm-none-eabi/lib/armv7-m\libg.a(lib_a-freer.o)
 .bss           0x00000000        0x0 c:/microsemi/softconsole_v4.0/arm-none-eabi-gcc/bin/../lib/gcc/arm-none-eabi/4.9.3/../../../../arm-none-eabi/lib/armv7-m\libg.a(lib_a-freer.o)
 .text          0x00000000        0x0 c:/microsemi/softconsole_v4.0/arm-none-eabi-gcc/bin/../lib/gcc/arm-none-eabi/4.9.3/../../../../arm-none-eabi/lib/armv7-m\libg.a(lib_a-memmove.o)
 .data          0x00000000        0x0 c:/microsemi/softconsole_v4.0/arm-none-eabi-gcc/bin/../lib/gcc/arm-none-eabi/4.9.3/../../../../arm-none-eabi/lib/armv7-m\libg.a(lib_a-memmove.o)
 .bss           0x00000000        0x0 c:/microsemi/softconsole_v4.0/arm-none-eabi-gcc/bin/../lib/gcc/arm-none-eabi/4.9.3/../../../../arm-none-eabi/lib/armv7-m\libg.a(lib_a-memmove.o)
 .text          0x00000000        0x0 c:/microsemi/softconsole_v4.0/arm-none-eabi-gcc/bin/../lib/gcc/arm-none-eabi/4.9.3/../../../../arm-none-eabi/lib/armv7-m\libg.a(lib_a-reallocr.o)
 .data          0x00000000        0x0 c:/microsemi/softconsole_v4.0/arm-none-eabi-gcc/bin/../lib/gcc/arm-none-eabi/4.9.3/../../../../arm-none-eabi/lib/armv7-m\libg.a(lib_a-reallocr.o)
 .bss           0x00000000        0x0 c:/microsemi/softconsole_v4.0/arm-none-eabi-gcc/bin/../lib/gcc/arm-none-eabi/4.9.3/../../../../arm-none-eabi/lib/armv7-m\libg.a(lib_a-reallocr.o)
 .text          0x00000000        0x0 c:/microsemi/softconsole_v4.0/arm-none-eabi-gcc/bin/../lib/gcc/arm-none-eabi/4.9.3/../../../../arm-none-eabi/lib/armv7-m\libg.a(lib_a-reent.o)
 .data          0x00000000        0x0 c:/microsemi/softconsole_v4.0/arm-none-eabi-gcc/bin/../lib/gcc/arm-none-eabi/4.9.3/../../../../arm-none-eabi/lib/armv7-m\libg.a(lib_a-reent.o)
 .bss           0x00000000        0x0 c:/microsemi/softconsole_v4.0/arm-none-eabi-gcc/bin/../lib/gcc/arm-none-eabi/4.9.3/../../../../arm-none-eabi/lib/armv7-m\libg.a(lib_a-reent.o)
 .text.cleanup_glue
                0x00000000       0x1c c:/microsemi/softconsole_v4.0/arm-none-eabi-gcc/bin/../lib/gcc/arm-none-eabi/4.9.3/../../../../arm-none-eabi/lib/armv7-m\libg.a(lib_a-reent.o)
 .text._reclaim_reent
                0x00000000       0x88 c:/microsemi/softconsole_v4.0/arm-none-eabi-gcc/bin/../lib/gcc/arm-none-eabi/4.9.3/../../../../arm-none-eabi/lib/armv7-m\libg.a(lib_a-reent.o)
 .data          0x00000000        0x0 c:/microsemi/softconsole_v4.0/arm-none-eabi-gcc/bin/../lib/gcc/arm-none-eabi/4.9.3/armv7-m\libgcc.a(_arm_cmpdf2.o)
 .bss           0x00000000        0x0 c:/microsemi/softconsole_v4.0/arm-none-eabi-gcc/bin/../lib/gcc/arm-none-eabi/4.9.3/armv7-m\libgcc.a(_arm_cmpdf2.o)
 .data          0x00000000        0x0 c:/microsemi/softconsole_v4.0/arm-none-eabi-gcc/bin/../lib/gcc/arm-none-eabi/4.9.3/armv7-m\libgcc.a(_aeabi_uldivmod.o)
 .bss           0x00000000        0x0 c:/microsemi/softconsole_v4.0/arm-none-eabi-gcc/bin/../lib/gcc/arm-none-eabi/4.9.3/armv7-m\libgcc.a(_aeabi_uldivmod.o)
 .data          0x00000000        0x0 c:/microsemi/softconsole_v4.0/arm-none-eabi-gcc/bin/../lib/gcc/arm-none-eabi/4.9.3/armv7-m\libgcc.a(bpabi.o)
 .bss           0x00000000        0x0 c:/microsemi/softconsole_v4.0/arm-none-eabi-gcc/bin/../lib/gcc/arm-none-eabi/4.9.3/armv7-m\libgcc.a(bpabi.o)
 .data          0x00000000        0x0 c:/microsemi/softconsole_v4.0/arm-none-eabi-gcc/bin/../lib/gcc/arm-none-eabi/4.9.3/armv7-m\libgcc.a(_dvmd_tls.o)
 .bss           0x00000000        0x0 c:/microsemi/softconsole_v4.0/arm-none-eabi-gcc/bin/../lib/gcc/arm-none-eabi/4.9.3/armv7-m\libgcc.a(_dvmd_tls.o)
 .data          0x00000000        0x0 c:/microsemi/softconsole_v4.0/arm-none-eabi-gcc/bin/../lib/gcc/arm-none-eabi/4.9.3/armv7-m\libgcc.a(_divdi3.o)
 .bss           0x00000000        0x0 c:/microsemi/softconsole_v4.0/arm-none-eabi-gcc/bin/../lib/gcc/arm-none-eabi/4.9.3/armv7-m\libgcc.a(_divdi3.o)
 .ARM.extab     0x00000000        0x0 c:/microsemi/softconsole_v4.0/arm-none-eabi-gcc/bin/../lib/gcc/arm-none-eabi/4.9.3/armv7-m\libgcc.a(_divdi3.o)
 .data          0x00000000        0x0 c:/microsemi/softconsole_v4.0/arm-none-eabi-gcc/bin/../lib/gcc/arm-none-eabi/4.9.3/armv7-m\libgcc.a(_udivdi3.o)
 .bss           0x00000000        0x0 c:/microsemi/softconsole_v4.0/arm-none-eabi-gcc/bin/../lib/gcc/arm-none-eabi/4.9.3/armv7-m\libgcc.a(_udivdi3.o)
 .ARM.extab     0x00000000        0x0 c:/microsemi/softconsole_v4.0/arm-none-eabi-gcc/bin/../lib/gcc/arm-none-eabi/4.9.3/armv7-m\libgcc.a(_udivdi3.o)
 .text          0x00000000        0x0 c:/microsemi/softconsole_v4.0/arm-none-eabi-gcc/bin/../lib/gcc/arm-none-eabi/4.9.3/armv7-m/crtend.o
 .data          0x00000000        0x0 c:/microsemi/softconsole_v4.0/arm-none-eabi-gcc/bin/../lib/gcc/arm-none-eabi/4.9.3/armv7-m/crtend.o
 .bss           0x00000000        0x0 c:/microsemi/softconsole_v4.0/arm-none-eabi-gcc/bin/../lib/gcc/arm-none-eabi/4.9.3/armv7-m/crtend.o
 .eh_frame      0x00000000        0x4 c:/microsemi/softconsole_v4.0/arm-none-eabi-gcc/bin/../lib/gcc/arm-none-eabi/4.9.3/armv7-m/crtend.o
 .text          0x00000000        0x0 c:/microsemi/softconsole_v4.0/arm-none-eabi-gcc/bin/../lib/gcc/arm-none-eabi/4.9.3/armv7-m/crtn.o
 .data          0x00000000        0x0 c:/microsemi/softconsole_v4.0/arm-none-eabi-gcc/bin/../lib/gcc/arm-none-eabi/4.9.3/armv7-m/crtn.o
 .bss           0x00000000        0x0 c:/microsemi/softconsole_v4.0/arm-none-eabi-gcc/bin/../lib/gcc/arm-none-eabi/4.9.3/armv7-m/crtn.o

Memory Configuration

Name             Origin             Length             Attributes
ram              0x20000000         0x00010000         xrw
*default*        0x00000000         0xffffffff

Linker script and memory map

LOAD c:/microsemi/softconsole_v4.0/arm-none-eabi-gcc/bin/../lib/gcc/arm-none-eabi/4.9.3/armv7-m/crti.o
LOAD c:/microsemi/softconsole_v4.0/arm-none-eabi-gcc/bin/../lib/gcc/arm-none-eabi/4.9.3/armv7-m/crtbegin.o
LOAD c:/microsemi/softconsole_v4.0/arm-none-eabi-gcc/bin/../lib/gcc/arm-none-eabi/4.9.3/../../../../arm-none-eabi/lib/armv7-m/crt0.o
LOAD ./hal/CortexM3/GNU/hal.o
LOAD ./hal/CortexM3/GNU/hw_reg_access.o
LOAD ./hal/CortexM3/cortex_nvic.o
LOAD ./drivers_config/sys_config/sys_config.o
LOAD ./drivers/mss_uart/mss_uart.o
LOAD ./drivers/mss_sys_services/mss_comblk.o
LOAD ./drivers/mss_sys_services/mss_sys_services.o
LOAD ./drivers/mss_spi/mss_spi.o
LOAD ./drivers/mss_nvm/mss_nvm.o
LOAD ./drivers/mss_hpdma/mss_hpdma.o
LOAD ./drivers/mss_gpio/mss_gpio.o
LOAD ./CMSIS/startup_gcc/newlib_stubs.o
LOAD ./CMSIS/startup_gcc/startup_m2sxxx.o
LOAD ./CMSIS/system_m2sxxx.o
LOAD ./main.o
START GROUP
LOAD c:/microsemi/softconsole_v4.0/arm-none-eabi-gcc/bin/../lib/gcc/arm-none-eabi/4.9.3/armv7-m\libgcc.a
LOAD c:/microsemi/softconsole_v4.0/arm-none-eabi-gcc/bin/../lib/gcc/arm-none-eabi/4.9.3/../../../../arm-none-eabi/lib/armv7-m\libg.a
LOAD c:/microsemi/softconsole_v4.0/arm-none-eabi-gcc/bin/../lib/gcc/arm-none-eabi/4.9.3/../../../../arm-none-eabi/lib/armv7-m\libc.a
END GROUP
LOAD c:/microsemi/softconsole_v4.0/arm-none-eabi-gcc/bin/../lib/gcc/arm-none-eabi/4.9.3/armv7-m/crtend.o
LOAD c:/microsemi/softconsole_v4.0/arm-none-eabi-gcc/bin/../lib/gcc/arm-none-eabi/4.9.3/armv7-m/crtn.o
START GROUP
LOAD c:/microsemi/softconsole_v4.0/arm-none-eabi-gcc/bin/../lib/gcc/arm-none-eabi/4.9.3/../../../../arm-none-eabi/lib/armv7-m\libc.a
LOAD c:/microsemi/softconsole_v4.0/arm-none-eabi-gcc/bin/../lib/gcc/arm-none-eabi/4.9.3/armv7-m\libgcc.a
LOAD c:/microsemi/softconsole_v4.0/arm-none-eabi-gcc/bin/../lib/gcc/arm-none-eabi/4.9.3/../../../../arm-none-eabi/lib/armv7-m\libm.a
END GROUP
                0x00000000                __DYNAMIC = 0x0
                0x20000000                RAM_START_ADDRESS = 0x20000000
                0x00010000                RAM_SIZE = 0x10000
                0x00001000                MAIN_STACK_SIZE = 0x1000
                0x00001000                MIN_SIZE_HEAP = 0x1000
                0x20010000                PROVIDE (__main_stack_start, (RAM_START_ADDRESS + RAM_SIZE))
                0x20010000                PROVIDE (_estack, __main_stack_start)
                0x00000000                PROVIDE (__mirrored_nvm, 0x0)
                0x00000000                PROVIDE (__smartfusion2_memory_remap, 0x0)

.vector_table   0x20000000      0x190
                0x20000000                __vector_table_load = LOADADDR (.vector_table)
                0x20000000                __vector_table_start = .
                0x20000000                __vector_table_vma_base_address = .
 *(.isr_vector)
 .isr_vector    0x20000000      0x190 ./CMSIS/startup_gcc/startup_m2sxxx.o
                0x20000000                g_pfnVectors
                0x20000190                . = ALIGN (0x10)
                0x20000190                _evector_table = .

.boot_code      0x20000190      0x330
 *(.boot_code)
 .boot_code     0x20000190      0x324 ./CMSIS/startup_gcc/startup_m2sxxx.o
                0x20000190                Reset_Handler
                0x2000037e                NMI_Handler
                0x20000380                HardFault_Handler
                0x20000382                MemManage_Handler
                0x20000384                BusFault_Handler
                0x20000386                UsageFault_Handler
                0x20000388                SVC_Handler
                0x2000038a                DebugMon_Handler
                0x2000038c                PendSV_Handler
                0x2000038e                SysTick_Handler
                0x20000390                WdogWakeup_IRQHandler
                0x20000392                RTC_Wakeup_IRQHandler
                0x20000398                I2C0_IRQHandler
                0x2000039a                I2C0_SMBAlert_IRQHandler
                0x2000039c                I2C0_SMBus_IRQHandler
                0x2000039e                I2C1_IRQHandler
                0x200003a0                I2C1_SMBAlert_IRQHandler
                0x200003a2                I2C1_SMBus_IRQHandler
                0x200003a8                EthernetMAC_IRQHandler
                0x200003aa                DMA_IRQHandler
                0x200003ac                Timer1_IRQHandler
                0x200003ae                Timer2_IRQHandler
                0x200003b0                CAN_IRQHandler
                0x200003b2                ENVM0_IRQHandler
                0x200003b4                ENVM1_IRQHandler
                0x200003b8                USB_IRQHandler
                0x200003ba                USB_DMA_IRQHandler
                0x200003bc                PLL_Lock_IRQHandler
                0x200003be                PLL_LockLost_IRQHandler
                0x200003c0                CommSwitchError_IRQHandler
                0x200003c2                CacheError_IRQHandler
                0x200003c4                DDR_IRQHandler
                0x200003ca                ECC_Error_IRQHandler
                0x200003cc                MDDR_IOCalib_IRQHandler
                0x200003ce                FAB_PLL_Lock_IRQHandler
                0x200003d0                FAB_PLL_LockLost_IRQHandler
                0x200003d2                FIC64_IRQHandler
                0x200003d4                FabricIrq0_IRQHandler
                0x200003d6                FabricIrq1_IRQHandler
                0x200003d8                FabricIrq2_IRQHandler
                0x200003da                FabricIrq3_IRQHandler
                0x200003dc                FabricIrq4_IRQHandler
                0x200003de                FabricIrq5_IRQHandler
                0x200003e0                FabricIrq6_IRQHandler
                0x200003e2                FabricIrq7_IRQHandler
                0x200003e4                FabricIrq8_IRQHandler
                0x200003e6                FabricIrq9_IRQHandler
                0x200003e8                FabricIrq10_IRQHandler
                0x200003ea                FabricIrq11_IRQHandler
                0x200003ec                FabricIrq12_IRQHandler
                0x200003ee                FabricIrq13_IRQHandler
                0x200003f0                FabricIrq14_IRQHandler
                0x200003f2                FabricIrq15_IRQHandler
                0x200003f4                GPIO0_IRQHandler
                0x200003f6                GPIO1_IRQHandler
                0x200003f8                GPIO2_IRQHandler
                0x200003fa                GPIO3_IRQHandler
                0x200003fc                GPIO4_IRQHandler
                0x200003fe                GPIO5_IRQHandler
                0x20000400                GPIO6_IRQHandler
                0x20000402                GPIO7_IRQHandler
                0x20000404                GPIO8_IRQHandler
                0x20000406                GPIO9_IRQHandler
                0x20000408                GPIO10_IRQHandler
                0x2000040a                GPIO11_IRQHandler
                0x2000040c                GPIO12_IRQHandler
                0x2000040e                GPIO13_IRQHandler
                0x20000410                GPIO14_IRQHandler
                0x20000412                GPIO15_IRQHandler
                0x20000414                GPIO16_IRQHandler
                0x20000416                GPIO17_IRQHandler
                0x20000418                GPIO18_IRQHandler
                0x2000041a                GPIO19_IRQHandler
                0x2000041c                GPIO20_IRQHandler
                0x2000041e                GPIO21_IRQHandler
                0x20000420                GPIO22_IRQHandler
                0x20000422                GPIO23_IRQHandler
                0x20000424                GPIO24_IRQHandler
                0x20000426                GPIO25_IRQHandler
                0x20000428                GPIO26_IRQHandler
                0x2000042a                GPIO27_IRQHandler
                0x2000042c                GPIO28_IRQHandler
                0x2000042e                GPIO29_IRQHandler
                0x20000430                GPIO30_IRQHandler
                0x20000432                GPIO31_IRQHandler
                0x20000434                mscc_post_hw_cfg_init
                0x200004c0                . = ALIGN (0x10)
 *fill*         0x200004b4        0xc 

.text           0x200004c0     0x75e0
 CREATE_OBJECT_SYMBOLS
                0x200004c0                __text_load = LOADADDR (.text)
                0x200004c0                __text_start = .
 *(.text .text.* .gnu.linkonce.t.*)
 .text          0x200004c0       0x5c c:/microsemi/softconsole_v4.0/arm-none-eabi-gcc/bin/../lib/gcc/arm-none-eabi/4.9.3/armv7-m/crtbegin.o
 .text.NVIC_ClearPendingIRQ
                0x2000051c       0x34 ./drivers/mss_uart/mss_uart.o
 .text.set_bit_reg8
                0x20000550       0x38 ./drivers/mss_uart/mss_uart.o
 .text.clear_bit_reg8
                0x20000588       0x38 ./drivers/mss_uart/mss_uart.o
 .text.read_bit_reg8
                0x200005c0       0x38 ./drivers/mss_uart/mss_uart.o
 .text.MSS_UART_init
                0x200005f8       0x70 ./drivers/mss_uart/mss_uart.o
                0x200005f8                MSS_UART_init
 .text.MSS_UART_polled_tx_string
                0x20000668       0xb4 ./drivers/mss_uart/mss_uart.o
                0x20000668                MSS_UART_polled_tx_string
 .text.UART0_IRQHandler
                0x2000071c       0x20 ./drivers/mss_uart/mss_uart.o
                0x2000071c                UART0_IRQHandler
 .text.UART1_IRQHandler
                0x2000073c       0x20 ./drivers/mss_uart/mss_uart.o
                0x2000073c                UART1_IRQHandler
 .text.config_baud_divisors
                0x2000075c      0x148 ./drivers/mss_uart/mss_uart.o
 .text.global_init
                0x200008a4      0x1d8 ./drivers/mss_uart/mss_uart.o
 .text.MSS_UART_isr
                0x20000a7c      0x1f0 ./drivers/mss_uart/mss_uart.o
 .text.default_tx_handler
                0x20000c6c       0xe8 ./drivers/mss_uart/mss_uart.o
 .text.ComBlk_IRQHandler
                0x20000d54       0x48 ./drivers/mss_sys_services/mss_comblk.o
                0x20000d54                ComBlk_IRQHandler
 .text.handle_tx_okay_irq
                0x20000d9c      0x1b0 ./drivers/mss_sys_services/mss_comblk.o
 .text.handle_rx_okay_irq
                0x20000f4c      0x204 ./drivers/mss_sys_services/mss_comblk.o
 .text.complete_request
                0x20001150       0x40 ./drivers/mss_sys_services/mss_comblk.o
 .text.abort_current_cmd
                0x20001190       0x4c ./drivers/mss_sys_services/mss_comblk.o
 .text.fill_tx_fifo
                0x200011dc       0x64 ./drivers/mss_sys_services/mss_comblk.o
 .text.process_sys_ctrl_command
                0x20001240       0x28 ./drivers/mss_sys_services/mss_comblk.o
 .text.NVIC_EnableIRQ
                0x20001268       0x30 ./drivers/mss_spi/mss_spi.o
 .text.NVIC_DisableIRQ
                0x20001298       0x34 ./drivers/mss_spi/mss_spi.o
 .text.NVIC_ClearPendingIRQ
                0x200012cc       0x34 ./drivers/mss_spi/mss_spi.o
 .text.MSS_SPI_init
                0x20001300       0xe0 ./drivers/mss_spi/mss_spi.o
                0x20001300                MSS_SPI_init
 .text.recover_from_rx_overflow
                0x200013e0      0x124 ./drivers/mss_spi/mss_spi.o
 .text.MSS_SPI_configure_master_mode
                0x20001504      0x12c ./drivers/mss_spi/mss_spi.o
                0x20001504                MSS_SPI_configure_master_mode
 .text.MSS_SPI_set_slave_select
                0x20001630       0xec ./drivers/mss_spi/mss_spi.o
                0x20001630                MSS_SPI_set_slave_select
 .text.MSS_SPI_clear_slave_select
                0x2000171c       0x84 ./drivers/mss_spi/mss_spi.o
                0x2000171c                MSS_SPI_clear_slave_select
 .text.MSS_SPI_transfer_block
                0x200017a0      0x1f0 ./drivers/mss_spi/mss_spi.o
                0x200017a0                MSS_SPI_transfer_block
 .text.fill_slave_tx_fifo
                0x20001990       0xd8 ./drivers/mss_spi/mss_spi.o
 .text.read_slave_rx_fifo
                0x20001a68       0xa8 ./drivers/mss_spi/mss_spi.o
 .text.mss_spi_isr
                0x20001b10      0x280 ./drivers/mss_spi/mss_spi.o
 .text.SPI0_IRQHandler
                0x20001d90       0x20 ./drivers/mss_spi/mss_spi.o
                0x20001d90                SPI0_IRQHandler
 .text.SPI1_IRQHandler
                0x20001db0       0x20 ./drivers/mss_spi/mss_spi.o
                0x20001db0                SPI1_IRQHandler
 .text.start_transfer
                0x20001dd0      0x14c ./drivers/mss_hpdma/mss_hpdma.o
 .text.HPDMA_Complete_IRQHandler
                0x20001f1c       0xf4 ./drivers/mss_hpdma/mss_hpdma.o
                0x20001f1c                HPDMA_Complete_IRQHandler
 .text.HPDMA_Error_IRQHandler
                0x20002010      0x100 ./drivers/mss_hpdma/mss_hpdma.o
                0x20002010                HPDMA_Error_IRQHandler
 .text.NVIC_DisableIRQ
                0x20002110       0x34 ./drivers/mss_gpio/mss_gpio.o
 .text.NVIC_ClearPendingIRQ
                0x20002144       0x34 ./drivers/mss_gpio/mss_gpio.o
 .text.MSS_GPIO_init
                0x20002178       0x78 ./drivers/mss_gpio/mss_gpio.o
                0x20002178                MSS_GPIO_init
 .text.MSS_GPIO_config
                0x200021f0       0x38 ./drivers/mss_gpio/mss_gpio.o
                0x200021f0                MSS_GPIO_config
 .text._exit    0x20002228        0xc ./CMSIS/startup_gcc/newlib_stubs.o
                0x20002228                _exit
 .text._write_r
                0x20002234       0x1c ./CMSIS/startup_gcc/newlib_stubs.o
                0x20002234                _write_r
 .text._sbrk    0x20002250       0x9c ./CMSIS/startup_gcc/newlib_stubs.o
                0x20002250                _sbrk
 .text.SystemInit
                0x200022ec       0x20 ./CMSIS/system_m2sxxx.o
                0x200022ec                SystemInit
 .text.SystemCoreClockUpdate
                0x2000230c       0xf4 ./CMSIS/system_m2sxxx.o
                0x2000230c                SystemCoreClockUpdate
 .text.get_rcosc_25_50mhz_frequency
                0x20002400       0x3c ./CMSIS/system_m2sxxx.o
 .text.set_clock_frequency_globals
                0x2000243c       0x5c ./CMSIS/system_m2sxxx.o
 .text.get_silicon_revision
                0x20002498       0x48 ./CMSIS/system_m2sxxx.o
 .text.silicon_workarounds
                0x200024e0       0x20 ./CMSIS/system_m2sxxx.o
 .text.m2s050_rev_a_workarounds
                0x20002500       0x30 ./CMSIS/system_m2sxxx.o
 .text.MSS_GPIO_set_outputs
                0x20002530       0x20 ./main.o
 .text.MSS_GPIO_get_outputs
                0x20002550       0x18 ./main.o
 .text.fill_uart
                0x20002568       0x70 ./main.o
                0x20002568                fill_uart
 .text.SPI_0_select
                0x200025d8       0x18 ./main.o
                0x200025d8                SPI_0_select
 .text.SPI_0_clear
                0x200025f0       0x20 ./main.o
                0x200025f0                SPI_0_clear
 .text.FPGA_start_counting
                0x20002610       0x20 ./main.o
                0x20002610                FPGA_start_counting
 .text.main     0x20002630      0x4e8 ./main.o
                0x20002630                main
 .text.delay    0x20002b18       0x2c ./main.o
 .text          0x20002b44      0x370 c:/microsemi/softconsole_v4.0/arm-none-eabi-gcc/bin/../lib/gcc/arm-none-eabi/4.9.3/armv7-m\libgcc.a(_arm_addsubdf3.o)
                0x20002b44                __aeabi_drsub
                0x20002b4c                __aeabi_dsub
                0x20002b4c                __subdf3
                0x20002b50                __aeabi_dadd
                0x20002b50                __adddf3
                0x20002dc8                __floatunsidf
                0x20002dc8                __aeabi_ui2d
                0x20002de8                __floatsidf
                0x20002de8                __aeabi_i2d
                0x20002e0c                __aeabi_f2d
                0x20002e0c                __extendsfdf2
                0x20002e48                __floatundidf
                0x20002e48                __aeabi_ul2d
                0x20002e58                __floatdidf
                0x20002e58                __aeabi_l2d
 .text          0x20002eb4      0x424 c:/microsemi/softconsole_v4.0/arm-none-eabi-gcc/bin/../lib/gcc/arm-none-eabi/4.9.3/armv7-m\libgcc.a(_arm_muldivdf3.o)
                0x20002eb4                __aeabi_dmul
                0x20002eb4                __muldf3
                0x20003108                __divdf3
                0x20003108                __aeabi_ddiv
 .text          0x200032d8       0x50 c:/microsemi/softconsole_v4.0/arm-none-eabi-gcc/bin/../lib/gcc/arm-none-eabi/4.9.3/armv7-m\libgcc.a(_arm_fixdfsi.o)
                0x200032d8                __aeabi_d2iz
                0x200032d8                __fixdfsi
 .text          0x20003328       0xa0 c:/microsemi/softconsole_v4.0/arm-none-eabi-gcc/bin/../lib/gcc/arm-none-eabi/4.9.3/armv7-m\libgcc.a(_arm_truncdfsf2.o)
                0x20003328                __truncdfsf2
                0x20003328                __aeabi_d2f
 .text.__libc_init_array
                0x200033c8       0x50 c:/microsemi/softconsole_v4.0/arm-none-eabi-gcc/bin/../lib/gcc/arm-none-eabi/4.9.3/../../../../arm-none-eabi/lib/armv7-m\libg.a(lib_a-init.o)
                0x200033c8                __libc_init_array
 .text          0x20003418       0xec c:/microsemi/softconsole_v4.0/arm-none-eabi-gcc/bin/../lib/gcc/arm-none-eabi/4.9.3/../../../../arm-none-eabi/lib/armv7-m\libg.a(lib_a-memcpy.o)
                0x20003418                memcpy
 .text.memset   0x20003504       0x9c c:/microsemi/softconsole_v4.0/arm-none-eabi-gcc/bin/../lib/gcc/arm-none-eabi/4.9.3/../../../../arm-none-eabi/lib/armv7-m\libg.a(lib_a-memset.o)
                0x20003504                memset
 .text.sprintf  0x200035a0       0x4c c:/microsemi/softconsole_v4.0/arm-none-eabi-gcc/bin/../lib/gcc/arm-none-eabi/4.9.3/../../../../arm-none-eabi/lib/armv7-m\libg.a(lib_a-sprintf.o)
                0x200035a0                sprintf
 .text.strlen   0x200035ec       0x5c c:/microsemi/softconsole_v4.0/arm-none-eabi-gcc/bin/../lib/gcc/arm-none-eabi/4.9.3/../../../../arm-none-eabi/lib/armv7-m\libg.a(lib_a-strlen.o)
                0x200035ec                strlen
 .text._svfprintf_r
                0x20003648     0x14f4 c:/microsemi/softconsole_v4.0/arm-none-eabi-gcc/bin/../lib/gcc/arm-none-eabi/4.9.3/../../../../arm-none-eabi/lib/armv7-m\libg.a(lib_a-svfprintf.o)
                0x20003648                _svfprintf_r
 .text.startup.register_fini
                0x20004b3c       0x14 c:/microsemi/softconsole_v4.0/arm-none-eabi-gcc/bin/../lib/gcc/arm-none-eabi/4.9.3/../../../../arm-none-eabi/lib/armv7-m\libg.a(lib_a-__call_atexit.o)
 .text.atexit   0x20004b50        0xc c:/microsemi/softconsole_v4.0/arm-none-eabi-gcc/bin/../lib/gcc/arm-none-eabi/4.9.3/../../../../arm-none-eabi/lib/armv7-m\libg.a(lib_a-atexit.o)
                0x20004b50                atexit
 .text.quorem   0x20004b5c      0x130 c:/microsemi/softconsole_v4.0/arm-none-eabi-gcc/bin/../lib/gcc/arm-none-eabi/4.9.3/../../../../arm-none-eabi/lib/armv7-m\libg.a(lib_a-dtoa.o)
 *fill*         0x20004c8c        0x4 
 .text._dtoa_r  0x20004c90      0xea4 c:/microsemi/softconsole_v4.0/arm-none-eabi-gcc/bin/../lib/gcc/arm-none-eabi/4.9.3/../../../../arm-none-eabi/lib/armv7-m\libg.a(lib_a-dtoa.o)
                0x20004c90                _dtoa_r
 .text.__libc_fini_array
                0x20005b34       0x2c c:/microsemi/softconsole_v4.0/arm-none-eabi-gcc/bin/../lib/gcc/arm-none-eabi/4.9.3/../../../../arm-none-eabi/lib/armv7-m\libg.a(lib_a-fini.o)
                0x20005b34                __libc_fini_array
 .text._localeconv_r
                0x20005b60        0x8 c:/microsemi/softconsole_v4.0/arm-none-eabi-gcc/bin/../lib/gcc/arm-none-eabi/4.9.3/../../../../arm-none-eabi/lib/armv7-m\libg.a(lib_a-locale.o)
                0x20005b60                _localeconv_r
 .text._malloc_r
                0x20005b68      0x50c c:/microsemi/softconsole_v4.0/arm-none-eabi-gcc/bin/../lib/gcc/arm-none-eabi/4.9.3/../../../../arm-none-eabi/lib/armv7-m\libg.a(lib_a-mallocr.o)
                0x20005b68                _malloc_r
 .text.memchr   0x20006074       0x94 c:/microsemi/softconsole_v4.0/arm-none-eabi-gcc/bin/../lib/gcc/arm-none-eabi/4.9.3/../../../../arm-none-eabi/lib/armv7-m\libg.a(lib_a-memchr.o)
                0x20006074                memchr
 .text.__malloc_lock
                0x20006108        0x4 c:/microsemi/softconsole_v4.0/arm-none-eabi-gcc/bin/../lib/gcc/arm-none-eabi/4.9.3/../../../../arm-none-eabi/lib/armv7-m\libg.a(lib_a-mlock.o)
                0x20006108                __malloc_lock
 .text.__malloc_unlock
                0x2000610c        0x4 c:/microsemi/softconsole_v4.0/arm-none-eabi-gcc/bin/../lib/gcc/arm-none-eabi/4.9.3/../../../../arm-none-eabi/lib/armv7-m\libg.a(lib_a-mlock.o)
                0x2000610c                __malloc_unlock
 .text._Balloc  0x20006110       0x50 c:/microsemi/softconsole_v4.0/arm-none-eabi-gcc/bin/../lib/gcc/arm-none-eabi/4.9.3/../../../../arm-none-eabi/lib/armv7-m\libg.a(lib_a-mprec.o)
                0x20006110                _Balloc
 .text._Bfree   0x20006160       0x14 c:/microsemi/softconsole_v4.0/arm-none-eabi-gcc/bin/../lib/gcc/arm-none-eabi/4.9.3/../../../../arm-none-eabi/lib/armv7-m\libg.a(lib_a-mprec.o)
                0x20006160                _Bfree
 .text.__multadd
                0x20006174       0x84 c:/microsemi/softconsole_v4.0/arm-none-eabi-gcc/bin/../lib/gcc/arm-none-eabi/4.9.3/../../../../arm-none-eabi/lib/armv7-m\libg.a(lib_a-mprec.o)
                0x20006174                __multadd
 .text.__hi0bits
                0x200061f8       0x40 c:/microsemi/softconsole_v4.0/arm-none-eabi-gcc/bin/../lib/gcc/arm-none-eabi/4.9.3/../../../../arm-none-eabi/lib/armv7-m\libg.a(lib_a-mprec.o)
                0x200061f8                __hi0bits
 .text.__lo0bits
                0x20006238       0x5c c:/microsemi/softconsole_v4.0/arm-none-eabi-gcc/bin/../lib/gcc/arm-none-eabi/4.9.3/../../../../arm-none-eabi/lib/armv7-m\libg.a(lib_a-mprec.o)
                0x20006238                __lo0bits
 .text.__i2b    0x20006294       0x14 c:/microsemi/softconsole_v4.0/arm-none-eabi-gcc/bin/../lib/gcc/arm-none-eabi/4.9.3/../../../../arm-none-eabi/lib/armv7-m\libg.a(lib_a-mprec.o)
                0x20006294                __i2b
 .text.__multiply
                0x200062a8      0x140 c:/microsemi/softconsole_v4.0/arm-none-eabi-gcc/bin/../lib/gcc/arm-none-eabi/4.9.3/../../../../arm-none-eabi/lib/armv7-m\libg.a(lib_a-mprec.o)
                0x200062a8                __multiply
 .text.__pow5mult
                0x200063e8       0xa0 c:/microsemi/softconsole_v4.0/arm-none-eabi-gcc/bin/../lib/gcc/arm-none-eabi/4.9.3/../../../../arm-none-eabi/lib/armv7-m\libg.a(lib_a-mprec.o)
                0x200063e8                __pow5mult
 .text.__lshift
                0x20006488       0xb0 c:/microsemi/softconsole_v4.0/arm-none-eabi-gcc/bin/../lib/gcc/arm-none-eabi/4.9.3/../../../../arm-none-eabi/lib/armv7-m\libg.a(lib_a-mprec.o)
                0x20006488                __lshift
 .text.__mcmp   0x20006538       0x48 c:/microsemi/softconsole_v4.0/arm-none-eabi-gcc/bin/../lib/gcc/arm-none-eabi/4.9.3/../../../../arm-none-eabi/lib/armv7-m\libg.a(lib_a-mprec.o)
                0x20006538                __mcmp
 .text.__mdiff  0x20006580       0xe4 c:/microsemi/softconsole_v4.0/arm-none-eabi-gcc/bin/../lib/gcc/arm-none-eabi/4.9.3/../../../../arm-none-eabi/lib/armv7-m\libg.a(lib_a-mprec.o)
                0x20006580                __mdiff
 .text.__d2b    0x20006664       0xa8 c:/microsemi/softconsole_v4.0/arm-none-eabi-gcc/bin/../lib/gcc/arm-none-eabi/4.9.3/../../../../arm-none-eabi/lib/armv7-m\libg.a(lib_a-mprec.o)
                0x20006664                __d2b
 .text.__fpclassifyd
                0x2000670c       0x58 c:/microsemi/softconsole_v4.0/arm-none-eabi-gcc/bin/../lib/gcc/arm-none-eabi/4.9.3/../../../../arm-none-eabi/lib/armv7-m\libg.a(lib_a-s_fpclassify.o)
                0x2000670c                __fpclassifyd
 .text._sbrk_r  0x20006764       0x24 c:/microsemi/softconsole_v4.0/arm-none-eabi-gcc/bin/../lib/gcc/arm-none-eabi/4.9.3/../../../../arm-none-eabi/lib/armv7-m\libg.a(lib_a-sbrkr.o)
                0x20006764                _sbrk_r
 .text.__ssprint_r
                0x20006788      0x104 c:/microsemi/softconsole_v4.0/arm-none-eabi-gcc/bin/../lib/gcc/arm-none-eabi/4.9.3/../../../../arm-none-eabi/lib/armv7-m\libg.a(lib_a-svfiprintf.o)
                0x20006788                __ssprint_r
 .text.__register_exitproc
                0x2000688c       0xa4 c:/microsemi/softconsole_v4.0/arm-none-eabi-gcc/bin/../lib/gcc/arm-none-eabi/4.9.3/../../../../arm-none-eabi/lib/armv7-m\libg.a(lib_a-__atexit.o)
                0x2000688c                __register_exitproc
 .text._calloc_r
                0x20006930       0x60 c:/microsemi/softconsole_v4.0/arm-none-eabi-gcc/bin/../lib/gcc/arm-none-eabi/4.9.3/../../../../arm-none-eabi/lib/armv7-m\libg.a(lib_a-callocr.o)
                0x20006930                _calloc_r
 .text._malloc_trim_r
                0x20006990       0x9c c:/microsemi/softconsole_v4.0/arm-none-eabi-gcc/bin/../lib/gcc/arm-none-eabi/4.9.3/../../../../arm-none-eabi/lib/armv7-m\libg.a(lib_a-freer.o)
                0x20006990                _malloc_trim_r
 .text._free_r  0x20006a2c      0x1b0 c:/microsemi/softconsole_v4.0/arm-none-eabi-gcc/bin/../lib/gcc/arm-none-eabi/4.9.3/../../../../arm-none-eabi/lib/armv7-m\libg.a(lib_a-freer.o)
                0x20006a2c                _free_r
 .text.memmove  0x20006bdc       0xc8 c:/microsemi/softconsole_v4.0/arm-none-eabi-gcc/bin/../lib/gcc/arm-none-eabi/4.9.3/../../../../arm-none-eabi/lib/armv7-m\libg.a(lib_a-memmove.o)
                0x20006bdc                memmove
 .text._realloc_r
                0x20006ca4      0x3e0 c:/microsemi/softconsole_v4.0/arm-none-eabi-gcc/bin/../lib/gcc/arm-none-eabi/4.9.3/../../../../arm-none-eabi/lib/armv7-m\libg.a(lib_a-reallocr.o)
                0x20006ca4                _realloc_r
 .text          0x20007084      0x110 c:/microsemi/softconsole_v4.0/arm-none-eabi-gcc/bin/../lib/gcc/arm-none-eabi/4.9.3/armv7-m\libgcc.a(_arm_cmpdf2.o)
                0x20007084                __gtdf2
                0x20007084                __gedf2
                0x2000708c                __ltdf2
                0x2000708c                __ledf2
                0x20007094                __nedf2
                0x20007094                __eqdf2
                0x20007094                __cmpdf2
                0x20007110                __aeabi_cdrcmple
                0x20007120                __aeabi_cdcmpeq
                0x20007120                __aeabi_cdcmple
                0x20007130                __aeabi_dcmpeq
                0x20007144                __aeabi_dcmplt
                0x20007158                __aeabi_dcmple
                0x2000716c                __aeabi_dcmpge
                0x20007180                __aeabi_dcmpgt
 .text          0x20007194       0x30 c:/microsemi/softconsole_v4.0/arm-none-eabi-gcc/bin/../lib/gcc/arm-none-eabi/4.9.3/armv7-m\libgcc.a(_aeabi_uldivmod.o)
                0x20007194                __aeabi_uldivmod
 .text          0x200071c4       0x60 c:/microsemi/softconsole_v4.0/arm-none-eabi-gcc/bin/../lib/gcc/arm-none-eabi/4.9.3/armv7-m\libgcc.a(bpabi.o)
                0x200071c4                __gnu_ldivmod_helper
                0x200071f4                __gnu_uldivmod_helper
 .text          0x20007224        0x4 c:/microsemi/softconsole_v4.0/arm-none-eabi-gcc/bin/../lib/gcc/arm-none-eabi/4.9.3/armv7-m\libgcc.a(_dvmd_tls.o)
                0x20007224                __aeabi_idiv0
                0x20007224                __aeabi_ldiv0
 .text          0x20007228      0x2ac c:/microsemi/softconsole_v4.0/arm-none-eabi-gcc/bin/../lib/gcc/arm-none-eabi/4.9.3/armv7-m\libgcc.a(_divdi3.o)
                0x20007228                __divdi3
 .text          0x200074d4      0x270 c:/microsemi/softconsole_v4.0/arm-none-eabi-gcc/bin/../lib/gcc/arm-none-eabi/4.9.3/armv7-m\libgcc.a(_udivdi3.o)
                0x200074d4                __udivdi3
 *(.plt)
 *(.gnu.warning)
 *(.glue_7t)
 .glue_7t       0x00000000        0x0 linker stubs
 *(.glue_7)
 .glue_7        0x00000000        0x0 linker stubs
 *(.vfp11_veneer)
 .vfp11_veneer  0x00000000        0x0 linker stubs
                0x20007744                . = ALIGN (0x4)
 *crtbegin.o(.ctors)
 *(EXCLUDE_FILE(*crtend.o) .ctors)
 *(SORT(.ctors.*))
 *crtend.o(.ctors)
 *crtbegin.o(.dtors)
 *(EXCLUDE_FILE(*crtend.o) .dtors)
 *(SORT(.dtors.*))
 *crtend.o(.dtors)
 *(.rodata .rodata.* .gnu.linkonce.r.*)
 .rodata.g_config_reg_lut
                0x20007744       0x80 ./drivers/mss_gpio/mss_gpio.o
 .rodata.g_gpio_irqn_lut
                0x200077c4       0x20 ./drivers/mss_gpio/mss_gpio.o
 .rodata        0x200077e4       0x30 ./CMSIS/startup_gcc/newlib_stubs.o
 .rodata        0x20007814        0x8 ./CMSIS/system_m2sxxx.o
 .rodata        0x2000781c       0xd2 ./main.o
 *fill*         0x200078ee        0x2 
 .rodata.str1.4
                0x200078f0        0x2 c:/microsemi/softconsole_v4.0/arm-none-eabi-gcc/bin/../lib/gcc/arm-none-eabi/4.9.3/../../../../arm-none-eabi/lib/armv7-m\libg.a(lib_a-impure.o)
 *fill*         0x200078f2        0x2 
 .rodata._global_impure_ptr
                0x200078f4        0x4 c:/microsemi/softconsole_v4.0/arm-none-eabi-gcc/bin/../lib/gcc/arm-none-eabi/4.9.3/../../../../arm-none-eabi/lib/armv7-m\libg.a(lib_a-impure.o)
                0x200078f4                _global_impure_ptr
 .rodata.zeroes.6911
                0x200078f8       0x10 c:/microsemi/softconsole_v4.0/arm-none-eabi-gcc/bin/../lib/gcc/arm-none-eabi/4.9.3/../../../../arm-none-eabi/lib/armv7-m\libg.a(lib_a-svfprintf.o)
 .rodata.blanks.6910
                0x20007908       0x10 c:/microsemi/softconsole_v4.0/arm-none-eabi-gcc/bin/../lib/gcc/arm-none-eabi/4.9.3/../../../../arm-none-eabi/lib/armv7-m\libg.a(lib_a-svfprintf.o)
 .rodata.str1.4
                0x20007918       0x42 c:/microsemi/softconsole_v4.0/arm-none-eabi-gcc/bin/../lib/gcc/arm-none-eabi/4.9.3/../../../../arm-none-eabi/lib/armv7-m\libg.a(lib_a-svfprintf.o)
 *fill*         0x2000795a        0x2 
 .rodata.str1.4
                0x2000795c       0x10 c:/microsemi/softconsole_v4.0/arm-none-eabi-gcc/bin/../lib/gcc/arm-none-eabi/4.9.3/../../../../arm-none-eabi/lib/armv7-m\libg.a(lib_a-dtoa.o)
                                 0x12 (size before relaxing)
 .rodata.str1.4
                0x2000796c        0xc c:/microsemi/softconsole_v4.0/arm-none-eabi-gcc/bin/../lib/gcc/arm-none-eabi/4.9.3/../../../../arm-none-eabi/lib/armv7-m\libg.a(lib_a-locale.o)
                                 0x12 (size before relaxing)
 .rodata.__mprec_tens
                0x20007978       0xc8 c:/microsemi/softconsole_v4.0/arm-none-eabi-gcc/bin/../lib/gcc/arm-none-eabi/4.9.3/../../../../arm-none-eabi/lib/armv7-m\libg.a(lib_a-mprec.o)
                0x20007978                __mprec_tens
 .rodata.p05.5302
                0x20007a40        0xc c:/microsemi/softconsole_v4.0/arm-none-eabi-gcc/bin/../lib/gcc/arm-none-eabi/4.9.3/../../../../arm-none-eabi/lib/armv7-m\libg.a(lib_a-mprec.o)
 *fill*         0x20007a4c        0x4 
 .rodata.__mprec_bigtens
                0x20007a50       0x28 c:/microsemi/softconsole_v4.0/arm-none-eabi-gcc/bin/../lib/gcc/arm-none-eabi/4.9.3/../../../../arm-none-eabi/lib/armv7-m\libg.a(lib_a-mprec.o)
                0x20007a50                __mprec_bigtens
 *(.ARM.extab* .gnu.linkonce.armextab.*)
 *(.gcc_except_table)
 *(.eh_frame_hdr)
 *(.eh_frame)
 .eh_frame      0x20007a78        0x0 c:/microsemi/softconsole_v4.0/arm-none-eabi-gcc/bin/../lib/gcc/arm-none-eabi/4.9.3/armv7-m/crtbegin.o
 *(.vector_table)
 *(.init)
 .init          0x20007a78        0x4 c:/microsemi/softconsole_v4.0/arm-none-eabi-gcc/bin/../lib/gcc/arm-none-eabi/4.9.3/armv7-m/crti.o
                0x20007a78                _init
 .init          0x20007a7c        0x8 c:/microsemi/softconsole_v4.0/arm-none-eabi-gcc/bin/../lib/gcc/arm-none-eabi/4.9.3/armv7-m/crtn.o
 *(.fini)
 .fini          0x20007a84        0x4 c:/microsemi/softconsole_v4.0/arm-none-eabi-gcc/bin/../lib/gcc/arm-none-eabi/4.9.3/armv7-m/crti.o
                0x20007a84                _fini
 .fini          0x20007a88        0x8 c:/microsemi/softconsole_v4.0/arm-none-eabi-gcc/bin/../lib/gcc/arm-none-eabi/4.9.3/armv7-m/crtn.o
                0x20007a90                PROVIDE (__preinit_array_start, .)
 *(.preinit_array)
                0x20007a90                PROVIDE (__preinit_array_end, .)
                0x20007a90                PROVIDE (__init_array_start, .)
 *(SORT(.init_array.*))
 .init_array.00000
                0x20007a90        0x4 c:/microsemi/softconsole_v4.0/arm-none-eabi-gcc/bin/../lib/gcc/arm-none-eabi/4.9.3/../../../../arm-none-eabi/lib/armv7-m\libg.a(lib_a-__call_atexit.o)
 *(.init_array)
 .init_array    0x20007a94        0x4 c:/microsemi/softconsole_v4.0/arm-none-eabi-gcc/bin/../lib/gcc/arm-none-eabi/4.9.3/armv7-m/crtbegin.o
                0x20007a98                PROVIDE (__init_array_end, .)
                0x20007a98                PROVIDE (__fini_array_start, .)
 *(.fini_array)
 .fini_array    0x20007a98        0x4 c:/microsemi/softconsole_v4.0/arm-none-eabi-gcc/bin/../lib/gcc/arm-none-eabi/4.9.3/armv7-m/crtbegin.o
 *(SORT(.fini_array.*))
                0x20007a9c                PROVIDE (__fini_array_end, .)
                0x20007aa0                . = ALIGN (0x10)
 *fill*         0x20007a9c        0x4 
                0x20007aa0                __exidx_start = .

.v4_bx          0x20007aa0        0x0
 .v4_bx         0x00000000        0x0 linker stubs

.iplt           0x20007aa0        0x0
 .iplt          0x00000000        0x0 c:/microsemi/softconsole_v4.0/arm-none-eabi-gcc/bin/../lib/gcc/arm-none-eabi/4.9.3/armv7-m/crtbegin.o

.ARM.exidx      0x20007aa0        0x8
 *(.ARM.exidx* .gnu.linkonce.armexidx.*)
 .ARM.exidx     0x20007aa0        0x8 c:/microsemi/softconsole_v4.0/arm-none-eabi-gcc/bin/../lib/gcc/arm-none-eabi/4.9.3/armv7-m\libgcc.a(_divdi3.o)
 .ARM.exidx     0x20007aa8        0x0 c:/microsemi/softconsole_v4.0/arm-none-eabi-gcc/bin/../lib/gcc/arm-none-eabi/4.9.3/armv7-m\libgcc.a(_udivdi3.o)
                                  0x8 (size before relaxing)
                0x20007aa8                __exidx_end = .
                0x20007aa8                _etext = .
                0x20007aa8                PROVIDE (__text_end, .)

.rel.dyn        0x20007aa8        0x0
 .rel.iplt      0x00000000        0x0 c:/microsemi/softconsole_v4.0/arm-none-eabi-gcc/bin/../lib/gcc/arm-none-eabi/4.9.3/armv7-m/crtbegin.o

.data           0x20007ab0      0x8a0
                0x20007ab0                __data_load = LOADADDR (.data)
                0x20007ab0                _sidata = LOADADDR (.data)
                0x20007ab0                __data_start = .
                0x20007ab0                _sdata = .
 *(.jcr)
 .jcr           0x20007ab0        0x0 c:/microsemi/softconsole_v4.0/arm-none-eabi-gcc/bin/../lib/gcc/arm-none-eabi/4.9.3/armv7-m/crtbegin.o
 .jcr           0x20007ab0        0x4 c:/microsemi/softconsole_v4.0/arm-none-eabi-gcc/bin/../lib/gcc/arm-none-eabi/4.9.3/armv7-m/crtend.o
 *(.got.plt)
 *(.got)
 *(.shdata)
 *(.data .data.* .gnu.linkonce.d.*)
 .data.SystemCoreClock
                0x20007ab4        0x4 ./CMSIS/system_m2sxxx.o
                0x20007ab4                SystemCoreClock
 .data.g_FrequencyPCLK0
                0x20007ab8        0x4 ./CMSIS/system_m2sxxx.o
                0x20007ab8                g_FrequencyPCLK0
 .data.g_FrequencyPCLK1
                0x20007abc        0x4 ./CMSIS/system_m2sxxx.o
                0x20007abc                g_FrequencyPCLK1
 .data.g_FrequencyPCLK2
                0x20007ac0        0x4 ./CMSIS/system_m2sxxx.o
                0x20007ac0                g_FrequencyPCLK2
 .data.g_FrequencyFIC0
                0x20007ac4        0x4 ./CMSIS/system_m2sxxx.o
                0x20007ac4                g_FrequencyFIC0
 .data.g_FrequencyFIC1
                0x20007ac8        0x4 ./CMSIS/system_m2sxxx.o
                0x20007ac8                g_FrequencyFIC1
 .data.g_FrequencyFIC64
                0x20007acc        0x4 ./CMSIS/system_m2sxxx.o
                0x20007acc                g_FrequencyFIC64
 .data.impure_data
                0x20007ad0      0x428 c:/microsemi/softconsole_v4.0/arm-none-eabi-gcc/bin/../lib/gcc/arm-none-eabi/4.9.3/../../../../arm-none-eabi/lib/armv7-m\libg.a(lib_a-impure.o)
 .data._impure_ptr
                0x20007ef8        0x4 c:/microsemi/softconsole_v4.0/arm-none-eabi-gcc/bin/../lib/gcc/arm-none-eabi/4.9.3/../../../../arm-none-eabi/lib/armv7-m\libg.a(lib_a-impure.o)
                0x20007ef8                _impure_ptr
 .data.lconv    0x20007efc       0x38 c:/microsemi/softconsole_v4.0/arm-none-eabi-gcc/bin/../lib/gcc/arm-none-eabi/4.9.3/../../../../arm-none-eabi/lib/armv7-m\libg.a(lib_a-locale.o)
 .data.__malloc_av_
                0x20007f34      0x408 c:/microsemi/softconsole_v4.0/arm-none-eabi-gcc/bin/../lib/gcc/arm-none-eabi/4.9.3/../../../../arm-none-eabi/lib/armv7-m\libg.a(lib_a-mallocr.o)
                0x20007f34                __malloc_av_
 .data.__malloc_trim_threshold
                0x2000833c        0x4 c:/microsemi/softconsole_v4.0/arm-none-eabi-gcc/bin/../lib/gcc/arm-none-eabi/4.9.3/../../../../arm-none-eabi/lib/armv7-m\libg.a(lib_a-mallocr.o)
                0x2000833c                __malloc_trim_threshold
 .data.__malloc_sbrk_base
                0x20008340        0x4 c:/microsemi/softconsole_v4.0/arm-none-eabi-gcc/bin/../lib/gcc/arm-none-eabi/4.9.3/../../../../arm-none-eabi/lib/armv7-m\libg.a(lib_a-mallocr.o)
                0x20008340                __malloc_sbrk_base
                0x20008350                . = ALIGN (0x10)
 *fill*         0x20008344        0xc 
                0x20008350                _edata = .

.igot.plt       0x20008350        0x0
 .igot.plt      0x00000000        0x0 c:/microsemi/softconsole_v4.0/arm-none-eabi-gcc/bin/../lib/gcc/arm-none-eabi/4.9.3/armv7-m/crtbegin.o

.bss            0x20008350      0x230
                0x20008350                __bss_start__ = .
                0x20008350                _sbss = .
 *(.shbss)
 *(.bss .bss.* .gnu.linkonce.b.*)
 .bss           0x20008350       0x1c c:/microsemi/softconsole_v4.0/arm-none-eabi-gcc/bin/../lib/gcc/arm-none-eabi/4.9.3/armv7-m/crtbegin.o
 .bss.g_comblk_cmd_opcode
                0x2000836c        0x1 ./drivers/mss_sys_services/mss_comblk.o
 *fill*         0x2000836d        0x3 
 .bss.g_comblk_p_cmd
                0x20008370        0x4 ./drivers/mss_sys_services/mss_comblk.o
 .bss.g_comblk_cmd_size
                0x20008374        0x2 ./drivers/mss_sys_services/mss_comblk.o
 *fill*         0x20008376        0x2 
 .bss.g_comblk_p_data
                0x20008378        0x4 ./drivers/mss_sys_services/mss_comblk.o
 .bss.g_comblk_data_size
                0x2000837c        0x4 ./drivers/mss_sys_services/mss_comblk.o
 .bss.g_comblk_p_response
                0x20008380        0x4 ./drivers/mss_sys_services/mss_comblk.o
 .bss.g_comblk_response_size
                0x20008384        0x2 ./drivers/mss_sys_services/mss_comblk.o
 .bss.g_comblk_response_idx
                0x20008386        0x2 ./drivers/mss_sys_services/mss_comblk.o
 .bss.g_comblk_completion_handler
                0x20008388        0x4 ./drivers/mss_sys_services/mss_comblk.o
 .bss.g_comblk_page_handler
                0x2000838c        0x4 ./drivers/mss_sys_services/mss_comblk.o
 .bss.g_request_in_progress
                0x20008390        0x1 ./drivers/mss_sys_services/mss_comblk.o
 .bss.g_comblk_state
                0x20008391        0x1 ./drivers/mss_sys_services/mss_comblk.o
 *fill*         0x20008392        0x2 
 .bss.g_async_event_handler
                0x20008394        0x4 ./drivers/mss_sys_services/mss_comblk.o
 .bss.g_transfer
                0x20008398       0x18 ./drivers/mss_hpdma/mss_hpdma.o
 .bss.g_hpdma_end_desc
                0x200083b0        0x4 ./drivers/mss_hpdma/mss_hpdma.o
 .bss.g_hpdma_current_desc
                0x200083b4        0x4 ./drivers/mss_hpdma/mss_hpdma.o
 .bss.heap_end.5162
                0x200083b8        0x4 ./CMSIS/startup_gcc/newlib_stubs.o
 .bss.__malloc_max_total_mem
                0x200083bc        0x4 c:/microsemi/softconsole_v4.0/arm-none-eabi-gcc/bin/../lib/gcc/arm-none-eabi/4.9.3/../../../../arm-none-eabi/lib/armv7-m\libg.a(lib_a-mallocr.o)
                0x200083bc                __malloc_max_total_mem
 .bss.__malloc_max_sbrked_mem
                0x200083c0        0x4 c:/microsemi/softconsole_v4.0/arm-none-eabi-gcc/bin/../lib/gcc/arm-none-eabi/4.9.3/../../../../arm-none-eabi/lib/armv7-m\libg.a(lib_a-mallocr.o)
                0x200083c0                __malloc_max_sbrked_mem
 .bss.__malloc_top_pad
                0x200083c4        0x4 c:/microsemi/softconsole_v4.0/arm-none-eabi-gcc/bin/../lib/gcc/arm-none-eabi/4.9.3/../../../../arm-none-eabi/lib/armv7-m\libg.a(lib_a-mallocr.o)
                0x200083c4                __malloc_top_pad
 .bss.__malloc_current_mallinfo
                0x200083c8       0x28 c:/microsemi/softconsole_v4.0/arm-none-eabi-gcc/bin/../lib/gcc/arm-none-eabi/4.9.3/../../../../arm-none-eabi/lib/armv7-m\libg.a(lib_a-mallocr.o)
                0x200083c8                __malloc_current_mallinfo
 *(COMMON)
 COMMON         0x200083f0       0x80 ./drivers/mss_uart/mss_uart.o
                0x200083f0                g_mss_uart1
                0x20008430                g_mss_uart0
 COMMON         0x20008470      0x108 ./drivers/mss_spi/mss_spi.o
                0x20008470                g_mss_spi1
                0x200084f4                g_mss_spi0
 COMMON         0x20008578        0x4 c:/microsemi/softconsole_v4.0/arm-none-eabi-gcc/bin/../lib/gcc/arm-none-eabi/4.9.3/../../../../arm-none-eabi/lib/armv7-m\libg.a(lib_a-reent.o)
                0x20008578                errno
                0x20008580                . = ALIGN (0x10)
 *fill*         0x2000857c        0x4 
                0x20008580                __bss_end__ = .
                0x20008580                _end = .
                0x20008580                __end = _end
                0x20008580                _ebss = .
                0x20008580                PROVIDE (end, .)

.heap           0x20008580     0x6a80
                0x20008580                __heap_start__ = .
                0x20009580                . = (. + MIN_SIZE_HEAP)
 *fill*         0x20008580     0x1000 
                0x2000f000                . = (. + (((ABSOLUTE (RAM_START_ADDRESS) + RAM_SIZE) - MAIN_STACK_SIZE) - .))
 *fill*         0x20009580     0x5a80 
                0x2000f000                _eheap = .

.stack          0x2000f000     0x1000
                0x2000f000                __stack_start__ = .
                0x20010000                . = (. + MAIN_STACK_SIZE)
 *fill*         0x2000f000     0x1000 
                0x20010000                _estack = .

.stab
 *(.stab)

.stabstr
 *(.stabstr)

.debug
 *(.debug)

.line
 *(.line)

.debug_srcinfo
 *(.debug_srcinfo)

.debug_sfnames
 *(.debug_sfnames)

.debug_aranges  0x00000000      0x890
 *(.debug_aranges)
 .debug_aranges
                0x00000000       0x20 ./hal/CortexM3/GNU/hal.o
 .debug_aranges
                0x00000020       0x20 ./hal/CortexM3/GNU/hw_reg_access.o
 .debug_aranges
                0x00000040       0x48 ./hal/CortexM3/cortex_nvic.o
 .debug_aranges
                0x00000088       0x18 ./drivers_config/sys_config/sys_config.o
 .debug_aranges
                0x000000a0      0x1d0 ./drivers/mss_uart/mss_uart.o
 .debug_aranges
                0x00000270       0x90 ./drivers/mss_sys_services/mss_comblk.o
 .debug_aranges
                0x00000300      0x1c8 ./drivers/mss_sys_services/mss_sys_services.o
 .debug_aranges
                0x000004c8       0xe0 ./drivers/mss_spi/mss_spi.o
 .debug_aranges
                0x000005a8       0x80 ./drivers/mss_nvm/mss_nvm.o
 .debug_aranges
                0x00000628       0x80 ./drivers/mss_hpdma/mss_hpdma.o
 .debug_aranges
                0x000006a8       0x68 ./drivers/mss_gpio/mss_gpio.o
 .debug_aranges
                0x00000710       0xa8 ./CMSIS/startup_gcc/newlib_stubs.o
 .debug_aranges
                0x000007b8       0x20 ./CMSIS/startup_gcc/startup_m2sxxx.o
 .debug_aranges
                0x000007d8       0x50 ./CMSIS/system_m2sxxx.o
 .debug_aranges
                0x00000828       0x68 ./main.o

.debug_pubnames
 *(.debug_pubnames)

.debug_info     0x00000000     0xb9f1
 *(.debug_info .gnu.linkonce.wi.*)
 .debug_info    0x00000000       0x74 ./hal/CortexM3/GNU/hal.o
 .debug_info    0x00000074       0x7e ./hal/CortexM3/GNU/hw_reg_access.o
 .debug_info    0x000000f2      0x18b ./hal/CortexM3/cortex_nvic.o
 .debug_info    0x0000027d       0x96 ./drivers_config/sys_config/sys_config.o
 .debug_info    0x00000313     0x1cc5 ./drivers/mss_uart/mss_uart.o
 .debug_info    0x00001fd8      0xb0d ./drivers/mss_sys_services/mss_comblk.o
 .debug_info    0x00002ae5     0x1e16 ./drivers/mss_sys_services/mss_sys_services.o
 .debug_info    0x000048fb     0x1592 ./drivers/mss_spi/mss_spi.o
 .debug_info    0x00005e8d     0x1158 ./drivers/mss_nvm/mss_nvm.o
 .debug_info    0x00006fe5     0x1169 ./drivers/mss_hpdma/mss_hpdma.o
 .debug_info    0x0000814e     0x1013 ./drivers/mss_gpio/mss_gpio.o
 .debug_info    0x00009161      0x692 ./CMSIS/startup_gcc/newlib_stubs.o
 .debug_info    0x000097f3       0x80 ./CMSIS/startup_gcc/startup_m2sxxx.o
 .debug_info    0x00009873      0xaa3 ./CMSIS/system_m2sxxx.o
 .debug_info    0x0000a316     0x16db ./main.o

.debug_abbrev   0x00000000     0x15d6
 *(.debug_abbrev)
 .debug_abbrev  0x00000000       0x14 ./hal/CortexM3/GNU/hal.o
 .debug_abbrev  0x00000014       0x14 ./hal/CortexM3/GNU/hw_reg_access.o
 .debug_abbrev  0x00000028       0xa3 ./hal/CortexM3/cortex_nvic.o
 .debug_abbrev  0x000000cb       0x4e ./drivers_config/sys_config/sys_config.o
 .debug_abbrev  0x00000119      0x2e6 ./drivers/mss_uart/mss_uart.o
 .debug_abbrev  0x000003ff      0x1d2 ./drivers/mss_sys_services/mss_comblk.o
 .debug_abbrev  0x000005d1      0x251 ./drivers/mss_sys_services/mss_sys_services.o
 .debug_abbrev  0x00000822      0x22c ./drivers/mss_spi/mss_spi.o
 .debug_abbrev  0x00000a4e      0x1cb ./drivers/mss_nvm/mss_nvm.o
 .debug_abbrev  0x00000c19      0x246 ./drivers/mss_hpdma/mss_hpdma.o
 .debug_abbrev  0x00000e5f      0x19a ./drivers/mss_gpio/mss_gpio.o
 .debug_abbrev  0x00000ff9      0x1c4 ./CMSIS/startup_gcc/newlib_stubs.o
 .debug_abbrev  0x000011bd       0x14 ./CMSIS/startup_gcc/startup_m2sxxx.o
 .debug_abbrev  0x000011d1      0x189 ./CMSIS/system_m2sxxx.o
 .debug_abbrev  0x0000135a      0x27c ./main.o

.debug_line     0x00000000     0x4c97
 *(.debug_line)
 .debug_line    0x00000000       0x4d ./hal/CortexM3/GNU/hal.o
 .debug_line    0x0000004d       0x8b ./hal/CortexM3/GNU/hw_reg_access.o
 .debug_line    0x000000d8      0x2b0 ./hal/CortexM3/cortex_nvic.o
 .debug_line    0x00000388      0x2aa ./drivers_config/sys_config/sys_config.o
 .debug_line    0x00000632      0xe31 ./drivers/mss_uart/mss_uart.o
 .debug_line    0x00001463      0x53d ./drivers/mss_sys_services/mss_comblk.o
 .debug_line    0x000019a0      0xdaf ./drivers/mss_sys_services/mss_sys_services.o
 .debug_line    0x0000274f      0x7c9 ./drivers/mss_spi/mss_spi.o
 .debug_line    0x00002f18      0x689 ./drivers/mss_nvm/mss_nvm.o
 .debug_line    0x000035a1      0x467 ./drivers/mss_hpdma/mss_hpdma.o
 .debug_line    0x00003a08      0x3df ./drivers/mss_gpio/mss_gpio.o
 .debug_line    0x00003de7      0x41a ./CMSIS/startup_gcc/newlib_stubs.o
 .debug_line    0x00004201      0x190 ./CMSIS/startup_gcc/startup_m2sxxx.o
 .debug_line    0x00004391      0x354 ./CMSIS/system_m2sxxx.o
 .debug_line    0x000046e5      0x5b2 ./main.o

.debug_frame    0x00000000     0x2bbc
 *(.debug_frame)
 .debug_frame   0x00000000       0xf8 ./hal/CortexM3/cortex_nvic.o
 .debug_frame   0x000000f8      0x820 ./drivers/mss_uart/mss_uart.o
 .debug_frame   0x00000918      0x240 ./drivers/mss_sys_services/mss_comblk.o
 .debug_frame   0x00000b58      0x7e0 ./drivers/mss_sys_services/mss_sys_services.o
 .debug_frame   0x00001338      0x3c0 ./drivers/mss_spi/mss_spi.o
 .debug_frame   0x000016f8      0x208 ./drivers/mss_nvm/mss_nvm.o
 .debug_frame   0x00001900      0x210 ./drivers/mss_hpdma/mss_hpdma.o
 .debug_frame   0x00001b10      0x198 ./drivers/mss_gpio/mss_gpio.o
 .debug_frame   0x00001ca8      0x2a8 ./CMSIS/startup_gcc/newlib_stubs.o
 .debug_frame   0x00001f50      0x10c ./CMSIS/system_m2sxxx.o
 .debug_frame   0x0000205c      0x17c ./main.o
 .debug_frame   0x000021d8       0x20 c:/microsemi/softconsole_v4.0/arm-none-eabi-gcc/bin/../lib/gcc/arm-none-eabi/4.9.3/../../../../arm-none-eabi/lib/armv7-m\libg.a(lib_a-errno.o)
 .debug_frame   0x000021f8       0x28 c:/microsemi/softconsole_v4.0/arm-none-eabi-gcc/bin/../lib/gcc/arm-none-eabi/4.9.3/../../../../arm-none-eabi/lib/armv7-m\libg.a(lib_a-exit.o)
 .debug_frame   0x00002220       0x2c c:/microsemi/softconsole_v4.0/arm-none-eabi-gcc/bin/../lib/gcc/arm-none-eabi/4.9.3/../../../../arm-none-eabi/lib/armv7-m\libg.a(lib_a-init.o)
 .debug_frame   0x0000224c       0x34 c:/microsemi/softconsole_v4.0/arm-none-eabi-gcc/bin/../lib/gcc/arm-none-eabi/4.9.3/../../../../arm-none-eabi/lib/armv7-m\libg.a(lib_a-memset.o)
 .debug_frame   0x00002280       0x84 c:/microsemi/softconsole_v4.0/arm-none-eabi-gcc/bin/../lib/gcc/arm-none-eabi/4.9.3/../../../../arm-none-eabi/lib/armv7-m\libg.a(lib_a-sprintf.o)
 .debug_frame   0x00002304       0x20 c:/microsemi/softconsole_v4.0/arm-none-eabi-gcc/bin/../lib/gcc/arm-none-eabi/4.9.3/../../../../arm-none-eabi/lib/armv7-m\libg.a(lib_a-strlen.o)
 .debug_frame   0x00002324       0x40 c:/microsemi/softconsole_v4.0/arm-none-eabi-gcc/bin/../lib/gcc/arm-none-eabi/4.9.3/../../../../arm-none-eabi/lib/armv7-m\libg.a(lib_a-svfprintf.o)
 .debug_frame   0x00002364       0x50 c:/microsemi/softconsole_v4.0/arm-none-eabi-gcc/bin/../lib/gcc/arm-none-eabi/4.9.3/../../../../arm-none-eabi/lib/armv7-m\libg.a(lib_a-__call_atexit.o)
 .debug_frame   0x000023b4       0x20 c:/microsemi/softconsole_v4.0/arm-none-eabi-gcc/bin/../lib/gcc/arm-none-eabi/4.9.3/../../../../arm-none-eabi/lib/armv7-m\libg.a(lib_a-atexit.o)
 .debug_frame   0x000023d4       0x84 c:/microsemi/softconsole_v4.0/arm-none-eabi-gcc/bin/../lib/gcc/arm-none-eabi/4.9.3/../../../../arm-none-eabi/lib/armv7-m\libg.a(lib_a-dtoa.o)
 .debug_frame   0x00002458       0x34 c:/microsemi/softconsole_v4.0/arm-none-eabi-gcc/bin/../lib/gcc/arm-none-eabi/4.9.3/../../../../arm-none-eabi/lib/armv7-m\libg.a(lib_a-fini.o)
 .debug_frame   0x0000248c       0x9c c:/microsemi/softconsole_v4.0/arm-none-eabi-gcc/bin/../lib/gcc/arm-none-eabi/4.9.3/../../../../arm-none-eabi/lib/armv7-m\libg.a(lib_a-locale.o)
 .debug_frame   0x00002528       0x54 c:/microsemi/softconsole_v4.0/arm-none-eabi-gcc/bin/../lib/gcc/arm-none-eabi/4.9.3/../../../../arm-none-eabi/lib/armv7-m\libg.a(lib_a-mallocr.o)
 .debug_frame   0x0000257c       0x3c c:/microsemi/softconsole_v4.0/arm-none-eabi-gcc/bin/../lib/gcc/arm-none-eabi/4.9.3/../../../../arm-none-eabi/lib/armv7-m\libg.a(lib_a-memchr.o)
 .debug_frame   0x000025b8       0x30 c:/microsemi/softconsole_v4.0/arm-none-eabi-gcc/bin/../lib/gcc/arm-none-eabi/4.9.3/../../../../arm-none-eabi/lib/armv7-m\libg.a(lib_a-mlock.o)
 .debug_frame   0x000025e8      0x268 c:/microsemi/softconsole_v4.0/arm-none-eabi-gcc/bin/../lib/gcc/arm-none-eabi/4.9.3/../../../../arm-none-eabi/lib/armv7-m\libg.a(lib_a-mprec.o)
 .debug_frame   0x00002850       0x34 c:/microsemi/softconsole_v4.0/arm-none-eabi-gcc/bin/../lib/gcc/arm-none-eabi/4.9.3/../../../../arm-none-eabi/lib/armv7-m\libg.a(lib_a-s_fpclassify.o)
 .debug_frame   0x00002884       0x2c c:/microsemi/softconsole_v4.0/arm-none-eabi-gcc/bin/../lib/gcc/arm-none-eabi/4.9.3/../../../../arm-none-eabi/lib/armv7-m\libg.a(lib_a-sbrkr.o)
 .debug_frame   0x000028b0       0x78 c:/microsemi/softconsole_v4.0/arm-none-eabi-gcc/bin/../lib/gcc/arm-none-eabi/4.9.3/../../../../arm-none-eabi/lib/armv7-m\libg.a(lib_a-svfiprintf.o)
 .debug_frame   0x00002928       0x34 c:/microsemi/softconsole_v4.0/arm-none-eabi-gcc/bin/../lib/gcc/arm-none-eabi/4.9.3/../../../../arm-none-eabi/lib/armv7-m\libg.a(lib_a-__atexit.o)
 .debug_frame   0x0000295c       0x28 c:/microsemi/softconsole_v4.0/arm-none-eabi-gcc/bin/../lib/gcc/arm-none-eabi/4.9.3/../../../../arm-none-eabi/lib/armv7-m\libg.a(lib_a-callocr.o)
 .debug_frame   0x00002984       0x74 c:/microsemi/softconsole_v4.0/arm-none-eabi-gcc/bin/../lib/gcc/arm-none-eabi/4.9.3/../../../../arm-none-eabi/lib/armv7-m\libg.a(lib_a-freer.o)
 .debug_frame   0x000029f8       0x30 c:/microsemi/softconsole_v4.0/arm-none-eabi-gcc/bin/../lib/gcc/arm-none-eabi/4.9.3/../../../../arm-none-eabi/lib/armv7-m\libg.a(lib_a-memmove.o)
 .debug_frame   0x00002a28       0x58 c:/microsemi/softconsole_v4.0/arm-none-eabi-gcc/bin/../lib/gcc/arm-none-eabi/4.9.3/../../../../arm-none-eabi/lib/armv7-m\libg.a(lib_a-reallocr.o)
 .debug_frame   0x00002a80       0x58 c:/microsemi/softconsole_v4.0/arm-none-eabi-gcc/bin/../lib/gcc/arm-none-eabi/4.9.3/../../../../arm-none-eabi/lib/armv7-m\libg.a(lib_a-reent.o)
 .debug_frame   0x00002ad8       0x28 c:/microsemi/softconsole_v4.0/arm-none-eabi-gcc/bin/../lib/gcc/arm-none-eabi/4.9.3/armv7-m\libgcc.a(_aeabi_uldivmod.o)
 .debug_frame   0x00002b00       0x54 c:/microsemi/softconsole_v4.0/arm-none-eabi-gcc/bin/../lib/gcc/arm-none-eabi/4.9.3/armv7-m\libgcc.a(bpabi.o)
 .debug_frame   0x00002b54       0x34 c:/microsemi/softconsole_v4.0/arm-none-eabi-gcc/bin/../lib/gcc/arm-none-eabi/4.9.3/armv7-m\libgcc.a(_divdi3.o)
 .debug_frame   0x00002b88       0x34 c:/microsemi/softconsole_v4.0/arm-none-eabi-gcc/bin/../lib/gcc/arm-none-eabi/4.9.3/armv7-m\libgcc.a(_udivdi3.o)

.debug_str      0x00000000    0x157fa
 *(.debug_str)
 .debug_str     0x00000000     0x3480 ./hal/CortexM3/cortex_nvic.o
                               0x3608 (size before relaxing)
 .debug_str     0x00003480     0x5702 ./drivers_config/sys_config/sys_config.o
                               0x86f6 (size before relaxing)
 .debug_str     0x00008b82     0x255c ./drivers/mss_uart/mss_uart.o
                               0xb086 (size before relaxing)
 .debug_str     0x0000b0de      0x4be ./drivers/mss_sys_services/mss_comblk.o
                               0x94c5 (size before relaxing)
 .debug_str     0x0000b59c     0x4192 ./drivers/mss_sys_services/mss_sys_services.o
                               0xd6e7 (size before relaxing)
 .debug_str     0x0000f72e      0xac7 ./drivers/mss_spi/mss_spi.o
                               0xc252 (size before relaxing)
 .debug_str     0x000101f5      0xcc3 ./drivers/mss_nvm/mss_nvm.o
                               0x9e35 (size before relaxing)
 .debug_str     0x00010eb8      0x754 ./drivers/mss_hpdma/mss_hpdma.o
                               0x9ddf (size before relaxing)
 .debug_str     0x0001160c      0x9e1 ./drivers/mss_gpio/mss_gpio.o
                               0xa033 (size before relaxing)
 .debug_str     0x00011fed     0x1eec ./CMSIS/startup_gcc/newlib_stubs.o
                               0x6a17 (size before relaxing)
 .debug_str     0x00013ed9      0x530 ./CMSIS/system_m2sxxx.o
                               0x93a5 (size before relaxing)
 .debug_str     0x00014409     0x13f1 ./main.o
                               0xe23b (size before relaxing)

.debug_loc
 *(.debug_loc)

.debug_macinfo
 *(.debug_macinfo)

.debug_weaknames
 *(.debug_weaknames)

.debug_funcnames
 *(.debug_funcnames)

.debug_typenames
 *(.debug_typenames)

.debug_varnames
 *(.debug_varnames)

.note.gnu.arm.ident
 *(.note.gnu.arm.ident)

.ARM.attributes
                0x00000000       0x29
 *(.ARM.attributes)
 .ARM.attributes
                0x00000000       0x1d c:/microsemi/softconsole_v4.0/arm-none-eabi-gcc/bin/../lib/gcc/arm-none-eabi/4.9.3/armv7-m/crti.o
 .ARM.attributes
                0x0000001d       0x2d c:/microsemi/softconsole_v4.0/arm-none-eabi-gcc/bin/../lib/gcc/arm-none-eabi/4.9.3/armv7-m/crtbegin.o
 .ARM.attributes
                0x0000004a       0x1b c:/microsemi/softconsole_v4.0/arm-none-eabi-gcc/bin/../lib/gcc/arm-none-eabi/4.9.3/../../../../arm-none-eabi/lib/armv7-m/crt0.o
 .ARM.attributes
                0x00000065       0x21 ./hal/CortexM3/GNU/hal.o
 .ARM.attributes
                0x00000086       0x21 ./hal/CortexM3/GNU/hw_reg_access.o
 .ARM.attributes
                0x000000a7       0x33 ./hal/CortexM3/cortex_nvic.o
 .ARM.attributes
                0x000000da       0x33 ./drivers_config/sys_config/sys_config.o
 .ARM.attributes
                0x0000010d       0x33 ./drivers/mss_uart/mss_uart.o
 .ARM.attributes
                0x00000140       0x33 ./drivers/mss_sys_services/mss_comblk.o
 .ARM.attributes
                0x00000173       0x33 ./drivers/mss_sys_services/mss_sys_services.o
 .ARM.attributes
                0x000001a6       0x33 ./drivers/mss_spi/mss_spi.o
 .ARM.attributes
                0x000001d9       0x33 ./drivers/mss_nvm/mss_nvm.o
 .ARM.attributes
                0x0000020c       0x33 ./drivers/mss_hpdma/mss_hpdma.o
 .ARM.attributes
                0x0000023f       0x33 ./drivers/mss_gpio/mss_gpio.o
 .ARM.attributes
                0x00000272       0x33 ./CMSIS/startup_gcc/newlib_stubs.o
 .ARM.attributes
                0x000002a5       0x21 ./CMSIS/startup_gcc/startup_m2sxxx.o
 .ARM.attributes
                0x000002c6       0x33 ./CMSIS/system_m2sxxx.o
 .ARM.attributes
                0x000002f9       0x33 ./main.o
 .ARM.attributes
                0x0000032c       0x1d c:/microsemi/softconsole_v4.0/arm-none-eabi-gcc/bin/../lib/gcc/arm-none-eabi/4.9.3/armv7-m\libgcc.a(_arm_addsubdf3.o)
 .ARM.attributes
                0x00000349       0x1d c:/microsemi/softconsole_v4.0/arm-none-eabi-gcc/bin/../lib/gcc/arm-none-eabi/4.9.3/armv7-m\libgcc.a(_arm_muldivdf3.o)
 .ARM.attributes
                0x00000366       0x1d c:/microsemi/softconsole_v4.0/arm-none-eabi-gcc/bin/../lib/gcc/arm-none-eabi/4.9.3/armv7-m\libgcc.a(_arm_fixdfsi.o)
 .ARM.attributes
                0x00000383       0x1d c:/microsemi/softconsole_v4.0/arm-none-eabi-gcc/bin/../lib/gcc/arm-none-eabi/4.9.3/armv7-m\libgcc.a(_arm_truncdfsf2.o)
 .ARM.attributes
                0x000003a0       0x2d c:/microsemi/softconsole_v4.0/arm-none-eabi-gcc/bin/../lib/gcc/arm-none-eabi/4.9.3/../../../../arm-none-eabi/lib/armv7-m\libg.a(lib_a-errno.o)
 .ARM.attributes
                0x000003cd       0x2d c:/microsemi/softconsole_v4.0/arm-none-eabi-gcc/bin/../lib/gcc/arm-none-eabi/4.9.3/../../../../arm-none-eabi/lib/armv7-m\libg.a(lib_a-exit.o)
 .ARM.attributes
                0x000003fa       0x2d c:/microsemi/softconsole_v4.0/arm-none-eabi-gcc/bin/../lib/gcc/arm-none-eabi/4.9.3/../../../../arm-none-eabi/lib/armv7-m\libg.a(lib_a-impure.o)
 .ARM.attributes
                0x00000427       0x2d c:/microsemi/softconsole_v4.0/arm-none-eabi-gcc/bin/../lib/gcc/arm-none-eabi/4.9.3/../../../../arm-none-eabi/lib/armv7-m\libg.a(lib_a-init.o)
 .ARM.attributes
                0x00000454       0x1b c:/microsemi/softconsole_v4.0/arm-none-eabi-gcc/bin/../lib/gcc/arm-none-eabi/4.9.3/../../../../arm-none-eabi/lib/armv7-m\libg.a(lib_a-memcpy.o)
 .ARM.attributes
                0x0000046f       0x2d c:/microsemi/softconsole_v4.0/arm-none-eabi-gcc/bin/../lib/gcc/arm-none-eabi/4.9.3/../../../../arm-none-eabi/lib/armv7-m\libg.a(lib_a-memset.o)
 .ARM.attributes
                0x0000049c       0x2d c:/microsemi/softconsole_v4.0/arm-none-eabi-gcc/bin/../lib/gcc/arm-none-eabi/4.9.3/../../../../arm-none-eabi/lib/armv7-m\libg.a(lib_a-sprintf.o)
 .ARM.attributes
                0x000004c9       0x2d c:/microsemi/softconsole_v4.0/arm-none-eabi-gcc/bin/../lib/gcc/arm-none-eabi/4.9.3/../../../../arm-none-eabi/lib/armv7-m\libg.a(lib_a-strlen.o)
 .ARM.attributes
                0x000004f6       0x2d c:/microsemi/softconsole_v4.0/arm-none-eabi-gcc/bin/../lib/gcc/arm-none-eabi/4.9.3/../../../../arm-none-eabi/lib/armv7-m\libg.a(lib_a-svfprintf.o)
 .ARM.attributes
                0x00000523       0x2d c:/microsemi/softconsole_v4.0/arm-none-eabi-gcc/bin/../lib/gcc/arm-none-eabi/4.9.3/../../../../arm-none-eabi/lib/armv7-m\libg.a(lib_a-__call_atexit.o)
 .ARM.attributes
                0x00000550       0x2d c:/microsemi/softconsole_v4.0/arm-none-eabi-gcc/bin/../lib/gcc/arm-none-eabi/4.9.3/../../../../arm-none-eabi/lib/armv7-m\libg.a(lib_a-atexit.o)
 .ARM.attributes
                0x0000057d       0x2d c:/microsemi/softconsole_v4.0/arm-none-eabi-gcc/bin/../lib/gcc/arm-none-eabi/4.9.3/../../../../arm-none-eabi/lib/armv7-m\libg.a(lib_a-dtoa.o)
 .ARM.attributes
                0x000005aa       0x2d c:/microsemi/softconsole_v4.0/arm-none-eabi-gcc/bin/../lib/gcc/arm-none-eabi/4.9.3/../../../../arm-none-eabi/lib/armv7-m\libg.a(lib_a-fini.o)
 .ARM.attributes
                0x000005d7       0x2d c:/microsemi/softconsole_v4.0/arm-none-eabi-gcc/bin/../lib/gcc/arm-none-eabi/4.9.3/../../../../arm-none-eabi/lib/armv7-m\libg.a(lib_a-locale.o)
 .ARM.attributes
                0x00000604       0x2d c:/microsemi/softconsole_v4.0/arm-none-eabi-gcc/bin/../lib/gcc/arm-none-eabi/4.9.3/../../../../arm-none-eabi/lib/armv7-m\libg.a(lib_a-mallocr.o)
 .ARM.attributes
                0x00000631       0x2d c:/microsemi/softconsole_v4.0/arm-none-eabi-gcc/bin/../lib/gcc/arm-none-eabi/4.9.3/../../../../arm-none-eabi/lib/armv7-m\libg.a(lib_a-memchr.o)
 .ARM.attributes
                0x0000065e       0x2d c:/microsemi/softconsole_v4.0/arm-none-eabi-gcc/bin/../lib/gcc/arm-none-eabi/4.9.3/../../../../arm-none-eabi/lib/armv7-m\libg.a(lib_a-mlock.o)
 .ARM.attributes
                0x0000068b       0x2d c:/microsemi/softconsole_v4.0/arm-none-eabi-gcc/bin/../lib/gcc/arm-none-eabi/4.9.3/../../../../arm-none-eabi/lib/armv7-m\libg.a(lib_a-mprec.o)
 .ARM.attributes
                0x000006b8       0x2d c:/microsemi/softconsole_v4.0/arm-none-eabi-gcc/bin/../lib/gcc/arm-none-eabi/4.9.3/../../../../arm-none-eabi/lib/armv7-m\libg.a(lib_a-s_fpclassify.o)
 .ARM.attributes
                0x000006e5       0x2d c:/microsemi/softconsole_v4.0/arm-none-eabi-gcc/bin/../lib/gcc/arm-none-eabi/4.9.3/../../../../arm-none-eabi/lib/armv7-m\libg.a(lib_a-sbrkr.o)
 .ARM.attributes
                0x00000712       0x1b c:/microsemi/softconsole_v4.0/arm-none-eabi-gcc/bin/../lib/gcc/arm-none-eabi/4.9.3/../../../../arm-none-eabi/lib/armv7-m\libg.a(lib_a-strcmp.o)
 .ARM.attributes
                0x0000072d       0x2d c:/microsemi/softconsole_v4.0/arm-none-eabi-gcc/bin/../lib/gcc/arm-none-eabi/4.9.3/../../../../arm-none-eabi/lib/armv7-m\libg.a(lib_a-svfiprintf.o)
 .ARM.attributes
                0x0000075a       0x2d c:/microsemi/softconsole_v4.0/arm-none-eabi-gcc/bin/../lib/gcc/arm-none-eabi/4.9.3/../../../../arm-none-eabi/lib/armv7-m\libg.a(lib_a-__atexit.o)
 .ARM.attributes
                0x00000787       0x2d c:/microsemi/softconsole_v4.0/arm-none-eabi-gcc/bin/../lib/gcc/arm-none-eabi/4.9.3/../../../../arm-none-eabi/lib/armv7-m\libg.a(lib_a-callocr.o)
 .ARM.attributes
                0x000007b4       0x2d c:/microsemi/softconsole_v4.0/arm-none-eabi-gcc/bin/../lib/gcc/arm-none-eabi/4.9.3/../../../../arm-none-eabi/lib/armv7-m\libg.a(lib_a-freer.o)
 .ARM.attributes
                0x000007e1       0x2d c:/microsemi/softconsole_v4.0/arm-none-eabi-gcc/bin/../lib/gcc/arm-none-eabi/4.9.3/../../../../arm-none-eabi/lib/armv7-m\libg.a(lib_a-memmove.o)
 .ARM.attributes
                0x0000080e       0x2d c:/microsemi/softconsole_v4.0/arm-none-eabi-gcc/bin/../lib/gcc/arm-none-eabi/4.9.3/../../../../arm-none-eabi/lib/armv7-m\libg.a(lib_a-reallocr.o)
 .ARM.attributes
                0x0000083b       0x2d c:/microsemi/softconsole_v4.0/arm-none-eabi-gcc/bin/../lib/gcc/arm-none-eabi/4.9.3/../../../../arm-none-eabi/lib/armv7-m\libg.a(lib_a-reent.o)
 .ARM.attributes
                0x00000868       0x1d c:/microsemi/softconsole_v4.0/arm-none-eabi-gcc/bin/../lib/gcc/arm-none-eabi/4.9.3/armv7-m\libgcc.a(_arm_cmpdf2.o)
 .ARM.attributes
                0x00000885       0x1d c:/microsemi/softconsole_v4.0/arm-none-eabi-gcc/bin/../lib/gcc/arm-none-eabi/4.9.3/armv7-m\libgcc.a(_aeabi_uldivmod.o)
 .ARM.attributes
                0x000008a2       0x2d c:/microsemi/softconsole_v4.0/arm-none-eabi-gcc/bin/../lib/gcc/arm-none-eabi/4.9.3/armv7-m\libgcc.a(bpabi.o)
 .ARM.attributes
                0x000008cf       0x1d c:/microsemi/softconsole_v4.0/arm-none-eabi-gcc/bin/../lib/gcc/arm-none-eabi/4.9.3/armv7-m\libgcc.a(_dvmd_tls.o)
 .ARM.attributes
                0x000008ec       0x2d c:/microsemi/softconsole_v4.0/arm-none-eabi-gcc/bin/../lib/gcc/arm-none-eabi/4.9.3/armv7-m\libgcc.a(_divdi3.o)
 .ARM.attributes
                0x00000919       0x2d c:/microsemi/softconsole_v4.0/arm-none-eabi-gcc/bin/../lib/gcc/arm-none-eabi/4.9.3/armv7-m\libgcc.a(_udivdi3.o)
 .ARM.attributes
                0x00000946       0x2d c:/microsemi/softconsole_v4.0/arm-none-eabi-gcc/bin/../lib/gcc/arm-none-eabi/4.9.3/armv7-m/crtend.o
 .ARM.attributes
                0x00000973       0x1d c:/microsemi/softconsole_v4.0/arm-none-eabi-gcc/bin/../lib/gcc/arm-none-eabi/4.9.3/armv7-m/crtn.o

/DISCARD/
 *(.note.GNU-stack)
 *(.isr_vector)
OUTPUT(polled_uart.elf elf32-littlearm)

.debug_ranges   0x00000000      0x768
 .debug_ranges  0x00000000       0x38 ./hal/CortexM3/cortex_nvic.o
 .debug_ranges  0x00000038      0x1c0 ./drivers/mss_uart/mss_uart.o
 .debug_ranges  0x000001f8       0x80 ./drivers/mss_sys_services/mss_comblk.o
 .debug_ranges  0x00000278      0x1b8 ./drivers/mss_sys_services/mss_sys_services.o
 .debug_ranges  0x00000430       0xd0 ./drivers/mss_spi/mss_spi.o
 .debug_ranges  0x00000500       0x70 ./drivers/mss_nvm/mss_nvm.o
 .debug_ranges  0x00000570       0x70 ./drivers/mss_hpdma/mss_hpdma.o
 .debug_ranges  0x000005e0       0x58 ./drivers/mss_gpio/mss_gpio.o
 .debug_ranges  0x00000638       0x98 ./CMSIS/startup_gcc/newlib_stubs.o
 .debug_ranges  0x000006d0       0x40 ./CMSIS/system_m2sxxx.o
 .debug_ranges  0x00000710       0x58 ./main.o

.debug_macro    0x00000000     0x4c72
 .debug_macro   0x00000000       0xa8 ./hal/CortexM3/cortex_nvic.o
 .debug_macro   0x000000a8      0x862 ./hal/CortexM3/cortex_nvic.o
 .debug_macro   0x0000090a       0x22 ./hal/CortexM3/cortex_nvic.o
 .debug_macro   0x0000092c       0x44 ./hal/CortexM3/cortex_nvic.o
 .debug_macro   0x00000970       0x58 ./hal/CortexM3/cortex_nvic.o
 .debug_macro   0x000009c8       0x22 ./hal/CortexM3/cortex_nvic.o
 .debug_macro   0x000009ea      0x1df ./hal/CortexM3/cortex_nvic.o
 .debug_macro   0x00000bc9       0x58 ./hal/CortexM3/cortex_nvic.o
 .debug_macro   0x00000c21       0x35 ./hal/CortexM3/cortex_nvic.o
 .debug_macro   0x00000c56       0x9c ./hal/CortexM3/cortex_nvic.o
 .debug_macro   0x00000cf2       0x1c ./hal/CortexM3/cortex_nvic.o
 .debug_macro   0x00000d0e       0xa9 ./drivers_config/sys_config/sys_config.o
 .debug_macro   0x00000db7       0x26 ./drivers_config/sys_config/sys_config.o
 .debug_macro   0x00000ddd       0x3a ./drivers_config/sys_config/sys_config.o
 .debug_macro   0x00000e17       0x34 ./drivers_config/sys_config/sys_config.o
 .debug_macro   0x00000e4b      0xc83 ./drivers_config/sys_config/sys_config.o
 .debug_macro   0x00001ace      0x265 ./drivers_config/sys_config/sys_config.o
 .debug_macro   0x00001d33       0x3a ./drivers_config/sys_config/sys_config.o
 .debug_macro   0x00001d6d       0x34 ./drivers_config/sys_config/sys_config.o
 .debug_macro   0x00001da1      0x168 ./drivers/mss_uart/mss_uart.o
 .debug_macro   0x00001f09      0x16d ./drivers/mss_uart/mss_uart.o
 .debug_macro   0x00002076      0x177 ./drivers/mss_uart/mss_uart.o
 .debug_macro   0x000021ed       0xe2 ./drivers/mss_uart/mss_uart.o
 .debug_macro   0x000022cf       0x22 ./drivers/mss_uart/mss_uart.o
 .debug_macro   0x000022f1      0x14b ./drivers/mss_sys_services/mss_comblk.o
 .debug_macro   0x0000243c      0x3bd ./drivers/mss_sys_services/mss_sys_services.o
 .debug_macro   0x000027f9      0x2f8 ./drivers/mss_sys_services/mss_sys_services.o
 .debug_macro   0x00002af1       0x52 ./drivers/mss_sys_services/mss_sys_services.o
 .debug_macro   0x00002b43       0x16 ./drivers/mss_sys_services/mss_sys_services.o
 .debug_macro   0x00002b59       0x43 ./drivers/mss_sys_services/mss_sys_services.o
 .debug_macro   0x00002b9c      0x180 ./drivers/mss_sys_services/mss_sys_services.o
 .debug_macro   0x00002d1c      0x27a ./drivers/mss_sys_services/mss_sys_services.o
 .debug_macro   0x00002f96       0x10 ./drivers/mss_sys_services/mss_sys_services.o
 .debug_macro   0x00002fa6       0x35 ./drivers/mss_sys_services/mss_sys_services.o
 .debug_macro   0x00002fdb      0x233 ./drivers/mss_spi/mss_spi.o
 .debug_macro   0x0000320e      0x292 ./drivers/mss_nvm/mss_nvm.o
 .debug_macro   0x000034a0       0x16 ./drivers/mss_nvm/mss_nvm.o
 .debug_macro   0x000034b6      0x134 ./drivers/mss_hpdma/mss_hpdma.o
 .debug_macro   0x000035ea       0x4a ./drivers/mss_hpdma/mss_hpdma.o
 .debug_macro   0x00003634       0x10 ./drivers/mss_hpdma/mss_hpdma.o
 .debug_macro   0x00003644       0xf2 ./drivers/mss_gpio/mss_gpio.o
 .debug_macro   0x00003736      0x11c ./drivers/mss_gpio/mss_gpio.o
 .debug_macro   0x00003852      0x186 ./CMSIS/startup_gcc/newlib_stubs.o
 .debug_macro   0x000039d8       0x16 ./CMSIS/startup_gcc/newlib_stubs.o
 .debug_macro   0x000039ee      0x10e ./CMSIS/startup_gcc/newlib_stubs.o
 .debug_macro   0x00003afc       0x86 ./CMSIS/startup_gcc/newlib_stubs.o
 .debug_macro   0x00003b82       0x16 ./CMSIS/startup_gcc/newlib_stubs.o
 .debug_macro   0x00003b98       0x29 ./CMSIS/startup_gcc/newlib_stubs.o
 .debug_macro   0x00003bc1       0x16 ./CMSIS/startup_gcc/newlib_stubs.o
 .debug_macro   0x00003bd7       0x10 ./CMSIS/startup_gcc/newlib_stubs.o
 .debug_macro   0x00003be7       0x22 ./CMSIS/startup_gcc/newlib_stubs.o
 .debug_macro   0x00003c09       0xbe ./CMSIS/startup_gcc/newlib_stubs.o
 .debug_macro   0x00003cc7      0x48e ./CMSIS/startup_gcc/newlib_stubs.o
 .debug_macro   0x00004155       0x16 ./CMSIS/startup_gcc/newlib_stubs.o
 .debug_macro   0x0000416b       0x10 ./CMSIS/startup_gcc/newlib_stubs.o
 .debug_macro   0x0000417b       0x10 ./CMSIS/startup_gcc/newlib_stubs.o
 .debug_macro   0x0000418b       0x10 ./CMSIS/startup_gcc/newlib_stubs.o
 .debug_macro   0x0000419b       0x35 ./CMSIS/startup_gcc/newlib_stubs.o
 .debug_macro   0x000041d0      0x122 ./CMSIS/startup_gcc/newlib_stubs.o
 .debug_macro   0x000042f2       0x10 ./CMSIS/startup_gcc/newlib_stubs.o
 .debug_macro   0x00004302      0x241 ./CMSIS/startup_gcc/newlib_stubs.o
 .debug_macro   0x00004543      0x155 ./CMSIS/system_m2sxxx.o
 .debug_macro   0x00004698      0x210 ./main.o
 .debug_macro   0x000048a8       0x16 ./main.o
 .debug_macro   0x000048be       0x10 ./main.o
 .debug_macro   0x000048ce       0x16 ./main.o
 .debug_macro   0x000048e4      0x197 ./main.o
 .debug_macro   0x00004a7b       0x16 ./main.o
 .debug_macro   0x00004a91      0x1e1 ./main.o

.comment        0x00000000       0x70
 .comment       0x00000000       0x70 ./hal/CortexM3/cortex_nvic.o
                                 0x71 (size before relaxing)
 .comment       0x00000000       0x71 ./drivers_config/sys_config/sys_config.o
 .comment       0x00000000       0x71 ./drivers/mss_uart/mss_uart.o
 .comment       0x00000000       0x71 ./drivers/mss_sys_services/mss_comblk.o
 .comment       0x00000000       0x71 ./drivers/mss_sys_services/mss_sys_services.o
 .comment       0x00000000       0x71 ./drivers/mss_spi/mss_spi.o
 .comment       0x00000000       0x71 ./drivers/mss_nvm/mss_nvm.o
 .comment       0x00000000       0x71 ./drivers/mss_hpdma/mss_hpdma.o
 .comment       0x00000000       0x71 ./drivers/mss_gpio/mss_gpio.o
 .comment       0x00000000       0x71 ./CMSIS/startup_gcc/newlib_stubs.o
 .comment       0x00000000       0x71 ./CMSIS/system_m2sxxx.o
 .comment       0x00000000       0x71 ./main.o
